
origpatch.libhook.so:     file format elf32-i386


Disassembly of section .text:

000000c0 <_start>:
      c0:	59                   	pop    %ecx
      c1:	89 e0                	mov    %esp,%eax
      c3:	51                   	push   %ecx
      c4:	8d 74 88 04          	lea    0x4(%eax,%ecx,4),%esi
      c8:	56                   	push   %esi
      c9:	50                   	push   %eax
      ca:	51                   	push   %ecx
      cb:	89 35 e0 46 00 00    	mov    %esi,0x46e0
      d1:	e8 9a 02 00 00       	call   370 <stackgap>
      d6:	50                   	push   %eax
      d7:	e8 b4 18 00 00       	call   1990 <__libc_exit>
      dc:	f4                   	hlt    

000000dd <mychecksum>:
      dd:	55                   	push   %ebp
      de:	89 e5                	mov    %esp,%ebp
      e0:	83 ec 10             	sub    $0x10,%esp
      e3:	e8 b7 2e 00 00       	call   2f9f <__x86.get_pc_thunk.ax>
      e8:	05 2c 45 00 00       	add    $0x452c,%eax
      ed:	c6 45 ff ff          	movb   $0xff,-0x1(%ebp)
      f1:	eb 26                	jmp    119 <mychecksum+0x3c>
      f3:	8b 45 08             	mov    0x8(%ebp),%eax
      f6:	0f b6 00             	movzbl (%eax),%eax
      f9:	3c 30                	cmp    $0x30,%al
      fb:	75 07                	jne    104 <mychecksum+0x27>
      fd:	b8 00 00 00 00       	mov    $0x0,%eax
     102:	eb 23                	jmp    127 <mychecksum+0x4a>
     104:	8b 45 08             	mov    0x8(%ebp),%eax
     107:	0f b6 00             	movzbl (%eax),%eax
     10a:	89 c2                	mov    %eax,%edx
     10c:	0f b6 45 ff          	movzbl -0x1(%ebp),%eax
     110:	01 d0                	add    %edx,%eax
     112:	88 45 ff             	mov    %al,-0x1(%ebp)
     115:	83 45 08 01          	addl   $0x1,0x8(%ebp)
     119:	8b 45 08             	mov    0x8(%ebp),%eax
     11c:	0f b6 00             	movzbl (%eax),%eax
     11f:	84 c0                	test   %al,%al
     121:	75 d0                	jne    f3 <mychecksum+0x16>
     123:	0f b6 45 ff          	movzbl -0x1(%ebp),%eax
     127:	c9                   	leave  
     128:	c3                   	ret    

00000129 <checksum>:
     129:	55                   	push   %ebp
     12a:	89 e5                	mov    %esp,%ebp
     12c:	53                   	push   %ebx
     12d:	83 ec 04             	sub    $0x4,%esp
     130:	e8 6a 2e 00 00       	call   2f9f <__x86.get_pc_thunk.ax>
     135:	05 df 44 00 00       	add    $0x44df,%eax
     13a:	83 ec 0c             	sub    $0xc,%esp
     13d:	ff 75 08             	pushl  0x8(%ebp)
     140:	89 c3                	mov    %eax,%ebx
     142:	e8 96 ff ff ff       	call   dd <mychecksum>
     147:	83 c4 10             	add    $0x10,%esp
     14a:	8b 5d fc             	mov    -0x4(%ebp),%ebx
     14d:	c9                   	leave  
     14e:	c3                   	ret    

0000014f <main>:
     14f:	8d 4c 24 04          	lea    0x4(%esp),%ecx
     153:	83 e4 f0             	and    $0xfffffff0,%esp
     156:	ff 71 fc             	pushl  -0x4(%ecx)
     159:	55                   	push   %ebp
     15a:	89 e5                	mov    %esp,%ebp
     15c:	56                   	push   %esi
     15d:	53                   	push   %ebx
     15e:	51                   	push   %ecx
     15f:	83 ec 1c             	sub    $0x1c,%esp
     162:	e8 3c 2e 00 00       	call   2fa3 <__x86.get_pc_thunk.bx>
     167:	81 c3 ad 44 00 00    	add    $0x44ad,%ebx
     16d:	89 ce                	mov    %ecx,%esi
     16f:	83 ec 08             	sub    $0x8,%esp
     172:	8d 83 ec e9 ff ff    	lea    -0x1614(%ebx),%eax
     178:	50                   	push   %eax
     179:	8d 83 ef e9 ff ff    	lea    -0x1611(%ebx),%eax
     17f:	50                   	push   %eax
     180:	e8 fb 05 00 00       	call   780 <fopen_unlocked>
     185:	83 c4 10             	add    $0x10,%esp
     188:	89 45 e4             	mov    %eax,-0x1c(%ebp)
     18b:	83 ec 0c             	sub    $0xc,%esp
     18e:	ff 75 e4             	pushl  -0x1c(%ebp)
     191:	e8 2a 04 00 00       	call   5c0 <fflush_unlocked>
     196:	83 c4 10             	add    $0x10,%esp
     199:	83 3e 02             	cmpl   $0x2,(%esi)
     19c:	74 25                	je     1c3 <main+0x74>
     19e:	8b 46 04             	mov    0x4(%esi),%eax
     1a1:	8b 00                	mov    (%eax),%eax
     1a3:	83 ec 04             	sub    $0x4,%esp
     1a6:	50                   	push   %eax
     1a7:	8d 83 fa e9 ff ff    	lea    -0x1606(%ebx),%eax
     1ad:	50                   	push   %eax
     1ae:	ff 75 e4             	pushl  -0x1c(%ebp)
     1b1:	e8 1a 06 00 00       	call   7d0 <fprintf>
     1b6:	83 c4 10             	add    $0x10,%esp
     1b9:	83 ec 0c             	sub    $0xc,%esp
     1bc:	6a ff                	push   $0xffffffff
     1be:	e8 cd 17 00 00       	call   1990 <__libc_exit>
     1c3:	8b 46 04             	mov    0x4(%esi),%eax
     1c6:	83 c0 04             	add    $0x4,%eax
     1c9:	8b 00                	mov    (%eax),%eax
     1cb:	83 ec 0c             	sub    $0xc,%esp
     1ce:	50                   	push   %eax
     1cf:	e8 55 ff ff ff       	call   129 <checksum>
     1d4:	83 c4 10             	add    $0x10,%esp
     1d7:	0f be d0             	movsbl %al,%edx
     1da:	8b 46 04             	mov    0x4(%esi),%eax
     1dd:	83 c0 04             	add    $0x4,%eax
     1e0:	8b 00                	mov    (%eax),%eax
     1e2:	52                   	push   %edx
     1e3:	50                   	push   %eax
     1e4:	8d 83 0f ea ff ff    	lea    -0x15f1(%ebx),%eax
     1ea:	50                   	push   %eax
     1eb:	ff 75 e4             	pushl  -0x1c(%ebp)
     1ee:	e8 dd 05 00 00       	call   7d0 <fprintf>
     1f3:	83 c4 10             	add    $0x10,%esp
     1f6:	8b 46 04             	mov    0x4(%esi),%eax
     1f9:	83 c0 04             	add    $0x4,%eax
     1fc:	8b 00                	mov    (%eax),%eax
     1fe:	83 ec 0c             	sub    $0xc,%esp
     201:	50                   	push   %eax
     202:	e8 22 ff ff ff       	call   129 <checksum>
     207:	83 c4 10             	add    $0x10,%esp
     20a:	0f be d0             	movsbl %al,%edx
     20d:	8b 46 04             	mov    0x4(%esi),%eax
     210:	83 c0 04             	add    $0x4,%eax
     213:	8b 00                	mov    (%eax),%eax
     215:	83 ec 04             	sub    $0x4,%esp
     218:	52                   	push   %edx
     219:	50                   	push   %eax
     21a:	8d 83 0f ea ff ff    	lea    -0x15f1(%ebx),%eax
     220:	50                   	push   %eax
     221:	e8 1a 08 00 00       	call   a40 <printf>
     226:	83 c4 10             	add    $0x10,%esp
     229:	b8 00 00 00 00       	mov    $0x0,%eax
     22e:	8d 65 f4             	lea    -0xc(%ebp),%esp
     231:	59                   	pop    %ecx
     232:	5b                   	pop    %ebx
     233:	5e                   	pop    %esi
     234:	5d                   	pop    %ebp
     235:	8d 61 fc             	lea    -0x4(%ecx),%esp
     238:	c3                   	ret    

00000239 <__unified_syscall_256>:
     239:	0f b7 c0             	movzwl %ax,%eax
     23c:	eb 05                	jmp    243 <__unified_syscall+0x3>

0000023e <_exit>:
     23e:	b0 01                	mov    $0x1,%al

00000240 <__unified_syscall>:
     240:	0f b6 c0             	movzbl %al,%eax
     243:	57                   	push   %edi
     244:	56                   	push   %esi
     245:	53                   	push   %ebx
     246:	55                   	push   %ebp
     247:	89 e7                	mov    %esp,%edi
     249:	8b 5f 14             	mov    0x14(%edi),%ebx
     24c:	8b 4f 18             	mov    0x18(%edi),%ecx
     24f:	8b 57 1c             	mov    0x1c(%edi),%edx
     252:	8b 77 20             	mov    0x20(%edi),%esi
     255:	8b 6f 28             	mov    0x28(%edi),%ebp
     258:	8b 7f 24             	mov    0x24(%edi),%edi
     25b:	cd 80                	int    $0x80
     25d:	5d                   	pop    %ebp
     25e:	5b                   	pop    %ebx
     25f:	5e                   	pop    %esi
     260:	5f                   	pop    %edi
     261:	3d 7c ff ff ff       	cmp    $0xffffff7c,%eax
     266:	72 0d                	jb     275 <__you_tried_to_link_a_dietlibc_object_against_glibc>
     268:	f7 d8                	neg    %eax

0000026a <__error_unified_syscall>:
     26a:	50                   	push   %eax
     26b:	e8 10 00 00 00       	call   280 <__errno_location>
     270:	8f 00                	popl   (%eax)
     272:	83 c8 ff             	or     $0xffffffff,%eax

00000275 <__you_tried_to_link_a_dietlibc_object_against_glibc>:
     275:	c3                   	ret    
     276:	66 90                	xchg   %ax,%ax
     278:	66 90                	xchg   %ax,%ax
     27a:	66 90                	xchg   %ax,%ax
     27c:	66 90                	xchg   %ax,%ax
     27e:	66 90                	xchg   %ax,%ax

00000280 <__errno_location>:
     280:	e8 1a 2d 00 00       	call   2f9f <__x86.get_pc_thunk.ax>
     285:	05 8f 43 00 00       	add    $0x438f,%eax
     28a:	c7 c0 fc ff ff ff    	mov    $0xfffffffc,%eax
     290:	65 03 05 00 00 00 00 	add    %gs:0x0,%eax
     297:	c3                   	ret    
     298:	66 90                	xchg   %ax,%ax
     29a:	66 90                	xchg   %ax,%ax
     29c:	66 90                	xchg   %ax,%ax
     29e:	66 90                	xchg   %ax,%ax

000002a0 <__setup_tls>:
     2a0:	83 ec 1c             	sub    $0x1c,%esp
     2a3:	8b 15 08 58 00 00    	mov    0x5808,%edx
     2a9:	8b 44 24 20          	mov    0x20(%esp),%eax
     2ad:	c7 04 24 ff ff ff ff 	movl   $0xffffffff,(%esp)
     2b4:	c7 44 24 08 ff ff 0f 	movl   $0xfffff,0x8(%esp)
     2bb:	00 
     2bc:	89 00                	mov    %eax,(%eax)
     2be:	c7 40 04 00 00 00 00 	movl   $0x0,0x4(%eax)
     2c5:	c7 40 08 00 00 00 00 	movl   $0x0,0x8(%eax)
     2cc:	c7 40 0c 00 00 00 00 	movl   $0x0,0xc(%eax)
     2d3:	89 50 14             	mov    %edx,0x14(%eax)
     2d6:	89 44 24 04          	mov    %eax,0x4(%esp)
     2da:	a1 f0 57 00 00       	mov    0x57f0,%eax
     2df:	c7 44 24 0c 51 00 00 	movl   $0x51,0xc(%esp)
     2e6:	00 
     2e7:	85 c0                	test   %eax,%eax
     2e9:	79 05                	jns    2f0 <__setup_tls+0x50>
     2eb:	83 c4 1c             	add    $0x1c,%esp
     2ee:	c3                   	ret    
     2ef:	90                   	nop
     2f0:	83 ec 0c             	sub    $0xc,%esp
     2f3:	8d 44 24 0c          	lea    0xc(%esp),%eax
     2f7:	50                   	push   %eax
     2f8:	e8 2a 09 00 00       	call   c27 <set_thread_area>
     2fd:	83 c4 10             	add    $0x10,%esp
     300:	85 c0                	test   %eax,%eax
     302:	75 1c                	jne    320 <__setup_tls+0x80>
     304:	8b 04 24             	mov    (%esp),%eax
     307:	8d 04 c5 03 00 00 00 	lea    0x3(,%eax,8),%eax
     30e:	8e e8                	mov    %eax,%gs
     310:	c7 05 f0 57 00 00 01 	movl   $0x1,0x57f0
     317:	00 00 00 
     31a:	83 c4 1c             	add    $0x1c,%esp
     31d:	c3                   	ret    
     31e:	66 90                	xchg   %ax,%ax
     320:	c7 05 f0 57 00 00 ff 	movl   $0xffffffff,0x57f0
     327:	ff ff ff 
     32a:	83 c4 1c             	add    $0x1c,%esp
     32d:	c3                   	ret    
     32e:	66 90                	xchg   %ax,%ax

00000330 <getauxval>:
     330:	a1 e8 46 00 00       	mov    0x46e8,%eax
     335:	8b 4c 24 04          	mov    0x4(%esp),%ecx
     339:	8b 10                	mov    (%eax),%edx
     33b:	85 d2                	test   %edx,%edx
     33d:	75 12                	jne    351 <getauxval+0x21>
     33f:	eb 1f                	jmp    360 <getauxval+0x30>
     341:	8d b4 26 00 00 00 00 	lea    0x0(%esi,%eiz,1),%esi
     348:	83 c0 08             	add    $0x8,%eax
     34b:	8b 10                	mov    (%eax),%edx
     34d:	85 d2                	test   %edx,%edx
     34f:	74 0f                	je     360 <getauxval+0x30>
     351:	39 d1                	cmp    %edx,%ecx
     353:	75 f3                	jne    348 <getauxval+0x18>
     355:	8b 40 04             	mov    0x4(%eax),%eax
     358:	c3                   	ret    
     359:	8d b4 26 00 00 00 00 	lea    0x0(%esi,%eiz,1),%esi
     360:	31 c0                	xor    %eax,%eax
     362:	c3                   	ret    
     363:	8d b4 26 00 00 00 00 	lea    0x0(%esi,%eiz,1),%esi
     36a:	8d b6 00 00 00 00    	lea    0x0(%esi),%esi

00000370 <stackgap>:
     370:	55                   	push   %ebp
     371:	89 e5                	mov    %esp,%ebp
     373:	57                   	push   %edi
     374:	56                   	push   %esi
     375:	53                   	push   %ebx
     376:	83 ec 1c             	sub    $0x1c,%esp
     379:	8b 45 10             	mov    0x10(%ebp),%eax
     37c:	8b 10                	mov    (%eax),%edx
     37e:	85 d2                	test   %edx,%edx
     380:	0f 84 12 02 00 00    	je     598 <stackgap+0x228>
     386:	89 c3                	mov    %eax,%ebx
     388:	8d b4 26 00 00 00 00 	lea    0x0(%esi,%eiz,1),%esi
     38f:	90                   	nop
     390:	83 c3 04             	add    $0x4,%ebx
     393:	8b 03                	mov    (%ebx),%eax
     395:	85 c0                	test   %eax,%eax
     397:	75 f7                	jne    390 <stackgap+0x20>
     399:	8b 43 04             	mov    0x4(%ebx),%eax
     39c:	8d 73 04             	lea    0x4(%ebx),%esi
     39f:	89 35 e8 46 00 00    	mov    %esi,0x46e8
     3a5:	85 c0                	test   %eax,%eax
     3a7:	0f 84 fa 2b 00 00    	je     2fa7 <__x86.get_pc_thunk.bx+0x4>
     3ad:	83 f8 19             	cmp    $0x19,%eax
     3b0:	0f 84 ea 01 00 00    	je     5a0 <stackgap+0x230>
     3b6:	89 f2                	mov    %esi,%edx
     3b8:	8d b4 26 00 00 00 00 	lea    0x0(%esi,%eiz,1),%esi
     3bf:	90                   	nop
     3c0:	83 c2 08             	add    $0x8,%edx
     3c3:	8b 0a                	mov    (%edx),%ecx
     3c5:	85 c9                	test   %ecx,%ecx
     3c7:	0f 84 e3 01 00 00    	je     5b0 <stackgap+0x240>
     3cd:	83 f9 19             	cmp    $0x19,%ecx
     3d0:	75 ee                	jne    3c0 <stackgap+0x50>
     3d2:	8b 52 04             	mov    0x4(%edx),%edx
     3d5:	8b 12                	mov    (%edx),%edx
     3d7:	89 15 08 58 00 00    	mov    %edx,0x5808
     3dd:	83 f8 21             	cmp    $0x21,%eax
     3e0:	0f 84 5a 01 00 00    	je     540 <stackgap+0x1d0>
     3e6:	89 f2                	mov    %esi,%edx
     3e8:	eb 0f                	jmp    3f9 <stackgap+0x89>
     3ea:	8d b6 00 00 00 00    	lea    0x0(%esi),%esi
     3f0:	83 f9 21             	cmp    $0x21,%ecx
     3f3:	0f 84 4f 01 00 00    	je     548 <stackgap+0x1d8>
     3f9:	83 c2 08             	add    $0x8,%edx
     3fc:	8b 0a                	mov    (%edx),%ecx
     3fe:	85 c9                	test   %ecx,%ecx
     400:	75 ee                	jne    3f0 <stackgap+0x80>
     402:	31 d2                	xor    %edx,%edx
     404:	89 15 ec 57 00 00    	mov    %edx,0x57ec
     40a:	31 c9                	xor    %ecx,%ecx
     40c:	89 f2                	mov    %esi,%edx
     40e:	31 ff                	xor    %edi,%edi
     410:	eb 18                	jmp    42a <stackgap+0xba>
     412:	8d b6 00 00 00 00    	lea    0x0(%esi),%esi
     418:	83 f8 05             	cmp    $0x5,%eax
     41b:	0f 84 0f 01 00 00    	je     530 <stackgap+0x1c0>
     421:	83 c2 08             	add    $0x8,%edx
     424:	8b 02                	mov    (%edx),%eax
     426:	85 c0                	test   %eax,%eax
     428:	74 0c                	je     436 <stackgap+0xc6>
     42a:	83 f8 03             	cmp    $0x3,%eax
     42d:	75 e9                	jne    418 <stackgap+0xa8>
     42f:	8b 4a 04             	mov    0x4(%edx),%ecx
     432:	85 ff                	test   %edi,%edi
     434:	74 eb                	je     421 <stackgap+0xb1>
     436:	85 c9                	test   %ecx,%ecx
     438:	74 19                	je     453 <stackgap+0xe3>
     43a:	85 ff                	test   %edi,%edi
     43c:	74 15                	je     453 <stackgap+0xe3>
     43e:	31 c0                	xor    %eax,%eax
     440:	83 39 07             	cmpl   $0x7,(%ecx)
     443:	0f 84 0f 01 00 00    	je     558 <stackgap+0x1e8>
     449:	83 c0 01             	add    $0x1,%eax
     44c:	83 c1 20             	add    $0x20,%ecx
     44f:	39 c7                	cmp    %eax,%edi
     451:	77 ed                	ja     440 <stackgap+0xd0>
     453:	8b 15 f8 57 00 00    	mov    0x57f8,%edx
     459:	81 fa 00 00 00 20    	cmp    $0x20000000,%edx
     45f:	0f 87 23 01 00 00    	ja     588 <stackgap+0x218>
     465:	8b 0d e4 57 00 00    	mov    0x57e4,%ecx
     46b:	39 d1                	cmp    %edx,%ecx
     46d:	0f 87 15 01 00 00    	ja     588 <stackgap+0x218>
     473:	8d 42 3b             	lea    0x3b(%edx),%eax
     476:	89 55 e4             	mov    %edx,-0x1c(%ebp)
     479:	83 e0 f0             	and    $0xfffffff0,%eax
     47c:	89 4d e0             	mov    %ecx,-0x20(%ebp)
     47f:	29 c4                	sub    %eax,%esp
     481:	8d 7c 24 0f          	lea    0xf(%esp),%edi
     485:	83 ec 04             	sub    $0x4,%esp
     488:	83 e7 f0             	and    $0xfffffff0,%edi
     48b:	51                   	push   %ecx
     48c:	ff 35 e0 57 00 00    	pushl  0x57e0
     492:	57                   	push   %edi
     493:	e8 af 15 00 00       	call   1a47 <memcpy>
     498:	8b 55 e4             	mov    -0x1c(%ebp),%edx
     49b:	8b 4d e0             	mov    -0x20(%ebp),%ecx
     49e:	83 c4 0c             	add    $0xc,%esp
     4a1:	89 d0                	mov    %edx,%eax
     4a3:	29 c8                	sub    %ecx,%eax
     4a5:	01 f9                	add    %edi,%ecx
     4a7:	50                   	push   %eax
     4a8:	6a 00                	push   $0x0
     4aa:	51                   	push   %ecx
     4ab:	e8 ad 15 00 00       	call   1a5d <memset>
     4b0:	8b 55 e4             	mov    -0x1c(%ebp),%edx
     4b3:	01 d7                	add    %edx,%edi
     4b5:	89 3c 24             	mov    %edi,(%esp)
     4b8:	89 3d e8 57 00 00    	mov    %edi,0x57e8
     4be:	e8 dd fd ff ff       	call   2a0 <__setup_tls>
     4c3:	8b 43 04             	mov    0x4(%ebx),%eax
     4c6:	83 c4 10             	add    $0x10,%esp
     4c9:	85 c0                	test   %eax,%eax
     4cb:	75 14                	jne    4e1 <stackgap+0x171>
     4cd:	e9 7e 00 00 00       	jmp    550 <stackgap+0x1e0>
     4d2:	8d b6 00 00 00 00    	lea    0x0(%esi),%esi
     4d8:	83 c6 08             	add    $0x8,%esi
     4db:	8b 06                	mov    (%esi),%eax
     4dd:	85 c0                	test   %eax,%eax
     4df:	74 6f                	je     550 <stackgap+0x1e0>
     4e1:	83 f8 20             	cmp    $0x20,%eax
     4e4:	75 f2                	jne    4d8 <stackgap+0x168>
     4e6:	8b 56 04             	mov    0x4(%esi),%edx
     4e9:	a1 e8 57 00 00       	mov    0x57e8,%eax
     4ee:	89 50 10             	mov    %edx,0x10(%eax)
     4f1:	8b 45 0c             	mov    0xc(%ebp),%eax
     4f4:	8b 00                	mov    (%eax),%eax
     4f6:	a3 fc 57 00 00       	mov    %eax,0x57fc
     4fb:	a3 f4 57 00 00       	mov    %eax,0x57f4
     500:	0f b6 10             	movzbl (%eax),%edx
     503:	84 d2                	test   %dl,%dl
     505:	74 0f                	je     516 <stackgap+0x1a6>
     507:	83 c0 01             	add    $0x1,%eax
     50a:	80 fa 2f             	cmp    $0x2f,%dl
     50d:	74 ec                	je     4fb <stackgap+0x18b>
     50f:	0f b6 10             	movzbl (%eax),%edx
     512:	84 d2                	test   %dl,%dl
     514:	75 f1                	jne    507 <stackgap+0x197>
     516:	83 ec 04             	sub    $0x4,%esp
     519:	ff 75 10             	pushl  0x10(%ebp)
     51c:	ff 75 0c             	pushl  0xc(%ebp)
     51f:	ff 75 08             	pushl  0x8(%ebp)
     522:	e8 28 fc ff ff       	call   14f <main>
     527:	89 04 24             	mov    %eax,(%esp)
     52a:	e8 61 14 00 00       	call   1990 <__libc_exit>
     52f:	90                   	nop
     530:	8b 7a 04             	mov    0x4(%edx),%edi
     533:	85 c9                	test   %ecx,%ecx
     535:	0f 84 e6 fe ff ff    	je     421 <stackgap+0xb1>
     53b:	e9 f6 fe ff ff       	jmp    436 <stackgap+0xc6>
     540:	89 f2                	mov    %esi,%edx
     542:	8d b6 00 00 00 00    	lea    0x0(%esi),%esi
     548:	8b 52 04             	mov    0x4(%edx),%edx
     54b:	e9 b4 fe ff ff       	jmp    404 <stackgap+0x94>
     550:	31 d2                	xor    %edx,%edx
     552:	eb 95                	jmp    4e9 <stackgap+0x179>
     554:	8d 74 26 00          	lea    0x0(%esi,%eiz,1),%esi
     558:	8b 41 08             	mov    0x8(%ecx),%eax
     55b:	8b 51 14             	mov    0x14(%ecx),%edx
     55e:	a3 e0 57 00 00       	mov    %eax,0x57e0
     563:	8b 41 10             	mov    0x10(%ecx),%eax
     566:	a3 e4 57 00 00       	mov    %eax,0x57e4
     56b:	f6 c2 0f             	test   $0xf,%dl
     56e:	74 06                	je     576 <stackgap+0x206>
     570:	83 c2 0f             	add    $0xf,%edx
     573:	83 e2 f0             	and    $0xfffffff0,%edx
     576:	89 15 f8 57 00 00    	mov    %edx,0x57f8
     57c:	81 fa 00 00 00 20    	cmp    $0x20000000,%edx
     582:	0f 86 dd fe ff ff    	jbe    465 <stackgap+0xf5>
     588:	8d 65 f4             	lea    -0xc(%ebp),%esp
     58b:	b8 6f 00 00 00       	mov    $0x6f,%eax
     590:	5b                   	pop    %ebx
     591:	5e                   	pop    %esi
     592:	5f                   	pop    %edi
     593:	5d                   	pop    %ebp
     594:	c3                   	ret    
     595:	8d 76 00             	lea    0x0(%esi),%esi
     598:	8b 5d 10             	mov    0x10(%ebp),%ebx
     59b:	e9 f9 fd ff ff       	jmp    399 <stackgap+0x29>
     5a0:	8b 53 08             	mov    0x8(%ebx),%edx
     5a3:	8b 12                	mov    (%edx),%edx
     5a5:	89 15 08 58 00 00    	mov    %edx,0x5808
     5ab:	e9 36 fe ff ff       	jmp    3e6 <stackgap+0x76>
     5b0:	e9 f2 29 00 00       	jmp    2fa7 <__x86.get_pc_thunk.bx+0x4>
     5b5:	66 90                	xchg   %ax,%ax
     5b7:	66 90                	xchg   %ax,%ax
     5b9:	66 90                	xchg   %ax,%ax
     5bb:	66 90                	xchg   %ax,%ax
     5bd:	66 90                	xchg   %ax,%ax
     5bf:	90                   	nop

000005c0 <fflush_unlocked>:
     5c0:	57                   	push   %edi
     5c1:	56                   	push   %esi
     5c2:	53                   	push   %ebx
     5c3:	8b 74 24 10          	mov    0x10(%esp),%esi
     5c7:	e8 d7 29 00 00       	call   2fa3 <__x86.get_pc_thunk.bx>
     5cc:	81 c3 48 40 00 00    	add    $0x4048,%ebx
     5d2:	85 f6                	test   %esi,%esi
     5d4:	0f 84 7e 00 00 00    	je     658 <fflush_unlocked+0x98>
     5da:	8b 46 0c             	mov    0xc(%esi),%eax
     5dd:	f6 46 04 04          	testb  $0x4,0x4(%esi)
     5e1:	75 1d                	jne    600 <fflush_unlocked+0x40>
     5e3:	85 c0                	test   %eax,%eax
     5e5:	75 49                	jne    630 <fflush_unlocked+0x70>
     5e7:	c7 46 0c 00 00 00 00 	movl   $0x0,0xc(%esi)
     5ee:	c6 46 21 00          	movb   $0x0,0x21(%esi)
     5f2:	31 f6                	xor    %esi,%esi
     5f4:	89 f0                	mov    %esi,%eax
     5f6:	5b                   	pop    %ebx
     5f7:	5e                   	pop    %esi
     5f8:	5f                   	pop    %edi
     5f9:	c3                   	ret    
     5fa:	8d b6 00 00 00 00    	lea    0x0(%esi),%esi
     600:	2b 46 08             	sub    0x8(%esi),%eax
     603:	74 17                	je     61c <fflush_unlocked+0x5c>
     605:	80 7e 21 01          	cmpb   $0x1,0x21(%esi)
     609:	83 d0 ff             	adc    $0xffffffff,%eax
     60c:	83 ec 04             	sub    $0x4,%esp
     60f:	6a 01                	push   $0x1
     611:	50                   	push   %eax
     612:	ff 36                	pushl  (%esi)
     614:	e8 00 06 00 00       	call   c19 <__libc_lseek>
     619:	83 c4 10             	add    $0x10,%esp
     61c:	c7 46 0c 00 00 00 00 	movl   $0x0,0xc(%esi)
     623:	c7 46 08 00 00 00 00 	movl   $0x0,0x8(%esi)
     62a:	eb c2                	jmp    5ee <fflush_unlocked+0x2e>
     62c:	8d 74 26 00          	lea    0x0(%esi,%eiz,1),%esi
     630:	83 ec 04             	sub    $0x4,%esp
     633:	50                   	push   %eax
     634:	ff 76 14             	pushl  0x14(%esi)
     637:	ff 36                	pushl  (%esi)
     639:	e8 f0 05 00 00       	call   c2e <__libc_write>
     63e:	83 c4 10             	add    $0x10,%esp
     641:	3b 46 0c             	cmp    0xc(%esi),%eax
     644:	74 a1                	je     5e7 <fflush_unlocked+0x27>
     646:	83 4e 04 01          	orl    $0x1,0x4(%esi)
     64a:	be ff ff ff ff       	mov    $0xffffffff,%esi
     64f:	eb a3                	jmp    5f4 <fflush_unlocked+0x34>
     651:	8d b4 26 00 00 00 00 	lea    0x0(%esi,%eiz,1),%esi
     658:	e8 83 04 00 00       	call   ae0 <__fflush_stdout>
     65d:	e8 13 fc ff ff       	call   275 <__you_tried_to_link_a_dietlibc_object_against_glibc>
     662:	8d 83 ec 11 00 00    	lea    0x11ec(%ebx),%eax
     668:	8b 18                	mov    (%eax),%ebx
     66a:	85 db                	test   %ebx,%ebx
     66c:	74 2a                	je     698 <fflush_unlocked+0xd8>
     66e:	bf ff ff ff ff       	mov    $0xffffffff,%edi
     673:	8d 74 26 00          	lea    0x0(%esi,%eiz,1),%esi
     677:	90                   	nop
     678:	83 ec 0c             	sub    $0xc,%esp
     67b:	53                   	push   %ebx
     67c:	e8 3f ff ff ff       	call   5c0 <fflush_unlocked>
     681:	8b 5b 18             	mov    0x18(%ebx),%ebx
     684:	83 c4 10             	add    $0x10,%esp
     687:	85 c0                	test   %eax,%eax
     689:	0f 45 f7             	cmovne %edi,%esi
     68c:	85 db                	test   %ebx,%ebx
     68e:	75 e8                	jne    678 <fflush_unlocked+0xb8>
     690:	e9 5f ff ff ff       	jmp    5f4 <fflush_unlocked+0x34>
     695:	8d 76 00             	lea    0x0(%esi),%esi
     698:	31 f6                	xor    %esi,%esi
     69a:	e9 55 ff ff ff       	jmp    5f4 <fflush_unlocked+0x34>
     69f:	90                   	nop

000006a0 <__stdio_flushall>:
     6a0:	83 ec 18             	sub    $0x18,%esp
     6a3:	6a 00                	push   $0x0
     6a5:	e8 16 ff ff ff       	call   5c0 <fflush_unlocked>
     6aa:	83 c4 1c             	add    $0x1c,%esp
     6ad:	c3                   	ret    
     6ae:	66 90                	xchg   %ax,%ax

000006b0 <__fflush4>:
     6b0:	57                   	push   %edi
     6b1:	56                   	push   %esi
     6b2:	53                   	push   %ebx
     6b3:	8b 7c 24 10          	mov    0x10(%esp),%edi
     6b7:	e8 e7 28 00 00       	call   2fa3 <__x86.get_pc_thunk.bx>
     6bc:	81 c3 58 3f 00 00    	add    $0x3f58,%ebx
     6c2:	8b 83 d8 00 00 00    	mov    0xd8(%ebx),%eax
     6c8:	85 c0                	test   %eax,%eax
     6ca:	74 34                	je     700 <__fflush4+0x50>
     6cc:	8b 47 04             	mov    0x4(%edi),%eax
     6cf:	83 e0 04             	and    $0x4,%eax
     6d2:	3b 44 24 14          	cmp    0x14(%esp),%eax
     6d6:	75 48                	jne    720 <__fflush4+0x70>
     6d8:	8b 37                	mov    (%edi),%esi
     6da:	85 f6                	test   %esi,%esi
     6dc:	74 12                	je     6f0 <__fflush4+0x40>
     6de:	31 f6                	xor    %esi,%esi
     6e0:	89 f0                	mov    %esi,%eax
     6e2:	5b                   	pop    %ebx
     6e3:	5e                   	pop    %esi
     6e4:	5f                   	pop    %edi
     6e5:	c3                   	ret    
     6e6:	8d b4 26 00 00 00 00 	lea    0x0(%esi,%eiz,1),%esi
     6ed:	8d 76 00             	lea    0x0(%esi),%esi
     6f0:	e8 7b 03 00 00       	call   a70 <__stdin_is_tty>
     6f5:	85 c0                	test   %eax,%eax
     6f7:	74 e5                	je     6de <__fflush4+0x2e>
     6f9:	e8 e2 03 00 00       	call   ae0 <__fflush_stdout>
     6fe:	eb e0                	jmp    6e0 <__fflush4+0x30>
     700:	83 ec 0c             	sub    $0xc,%esp
     703:	8d 83 8c c0 ff ff    	lea    -0x3f74(%ebx),%eax
     709:	c7 83 d8 00 00 00 01 	movl   $0x1,0xd8(%ebx)
     710:	00 00 00 
     713:	50                   	push   %eax
     714:	e8 37 12 00 00       	call   1950 <atexit>
     719:	83 c4 10             	add    $0x10,%esp
     71c:	eb ae                	jmp    6cc <__fflush4+0x1c>
     71e:	66 90                	xchg   %ax,%ax
     720:	83 ec 0c             	sub    $0xc,%esp
     723:	57                   	push   %edi
     724:	e8 97 fe ff ff       	call   5c0 <fflush_unlocked>
     729:	89 c6                	mov    %eax,%esi
     72b:	8b 47 04             	mov    0x4(%edi),%eax
     72e:	83 e0 fb             	and    $0xfffffffb,%eax
     731:	0b 44 24 24          	or     0x24(%esp),%eax
     735:	83 c4 10             	add    $0x10,%esp
     738:	89 47 04             	mov    %eax,0x4(%edi)
     73b:	eb a3                	jmp    6e0 <__fflush4+0x30>
     73d:	8d 76 00             	lea    0x0(%esi),%esi

00000740 <__stdio_outs>:
     740:	56                   	push   %esi
     741:	53                   	push   %ebx
     742:	e8 5c 28 00 00       	call   2fa3 <__x86.get_pc_thunk.bx>
     747:	81 c3 cd 3e 00 00    	add    $0x3ecd,%ebx
     74d:	83 ec 04             	sub    $0x4,%esp
     750:	8b 74 24 14          	mov    0x14(%esp),%esi
     754:	8d 83 6c 00 00 00    	lea    0x6c(%ebx),%eax
     75a:	ff 30                	pushl  (%eax)
     75c:	56                   	push   %esi
     75d:	6a 01                	push   $0x1
     75f:	ff 74 24 1c          	pushl  0x1c(%esp)
     763:	e8 98 00 00 00       	call   800 <fwrite_unlocked>
     768:	39 f0                	cmp    %esi,%eax
     76a:	0f 94 c0             	sete   %al
     76d:	83 c4 14             	add    $0x14,%esp
     770:	0f b6 c0             	movzbl %al,%eax
     773:	5b                   	pop    %ebx
     774:	5e                   	pop    %esi
     775:	c3                   	ret    
     776:	66 90                	xchg   %ax,%ax
     778:	66 90                	xchg   %ax,%ax
     77a:	66 90                	xchg   %ax,%ax
     77c:	66 90                	xchg   %ax,%ax
     77e:	66 90                	xchg   %ax,%ax

00000780 <fopen_unlocked>:
     780:	56                   	push   %esi
     781:	53                   	push   %ebx
     782:	e8 1c 28 00 00       	call   2fa3 <__x86.get_pc_thunk.bx>
     787:	81 c3 8d 3e 00 00    	add    $0x3e8d,%ebx
     78d:	83 ec 10             	sub    $0x10,%esp
     790:	ff 74 24 20          	pushl  0x20(%esp)
     794:	e8 b7 16 00 00       	call   1e50 <__stdio_parse_mode>
     799:	83 c4 0c             	add    $0xc,%esp
     79c:	68 b6 01 00 00       	push   $0x1b6
     7a1:	89 c6                	mov    %eax,%esi
     7a3:	50                   	push   %eax
     7a4:	ff 74 24 1c          	pushl  0x1c(%esp)
     7a8:	e8 73 04 00 00       	call   c20 <__libc_open>
     7ad:	83 c4 10             	add    $0x10,%esp
     7b0:	89 c2                	mov    %eax,%edx
     7b2:	31 c0                	xor    %eax,%eax
     7b4:	85 d2                	test   %edx,%edx
     7b6:	78 0f                	js     7c7 <fopen_unlocked+0x47>
     7b8:	83 ec 04             	sub    $0x4,%esp
     7bb:	56                   	push   %esi
     7bc:	6a 01                	push   $0x1
     7be:	52                   	push   %edx
     7bf:	e8 ec 16 00 00       	call   1eb0 <__stdio_init_file>
     7c4:	83 c4 10             	add    $0x10,%esp
     7c7:	83 c4 04             	add    $0x4,%esp
     7ca:	5b                   	pop    %ebx
     7cb:	5e                   	pop    %esi
     7cc:	c3                   	ret    
     7cd:	66 90                	xchg   %ax,%ax
     7cf:	90                   	nop

000007d0 <fprintf>:
     7d0:	53                   	push   %ebx
     7d1:	e8 cd 27 00 00       	call   2fa3 <__x86.get_pc_thunk.bx>
     7d6:	81 c3 3e 3e 00 00    	add    $0x3e3e,%ebx
     7dc:	83 ec 08             	sub    $0x8,%esp
     7df:	8d 44 24 18          	lea    0x18(%esp),%eax
     7e3:	83 ec 04             	sub    $0x4,%esp
     7e6:	50                   	push   %eax
     7e7:	ff 74 24 1c          	pushl  0x1c(%esp)
     7eb:	ff 74 24 1c          	pushl  0x1c(%esp)
     7ef:	e8 3c 03 00 00       	call   b30 <vfprintf>
     7f4:	83 c4 18             	add    $0x18,%esp
     7f7:	5b                   	pop    %ebx
     7f8:	c3                   	ret    
     7f9:	66 90                	xchg   %ax,%ax
     7fb:	66 90                	xchg   %ax,%ax
     7fd:	66 90                	xchg   %ax,%ax
     7ff:	90                   	nop

00000800 <fwrite_unlocked>:
     800:	55                   	push   %ebp
     801:	57                   	push   %edi
     802:	56                   	push   %esi
     803:	53                   	push   %ebx
     804:	e8 9a 27 00 00       	call   2fa3 <__x86.get_pc_thunk.bx>
     809:	81 c3 0b 3e 00 00    	add    $0x3e0b,%ebx
     80f:	83 ec 1c             	sub    $0x1c,%esp
     812:	8b 74 24 3c          	mov    0x3c(%esp),%esi
     816:	8b 7c 24 38          	mov    0x38(%esp),%edi
     81a:	8b 46 04             	mov    0x4(%esi),%eax
     81d:	f6 c4 01             	test   $0x1,%ah
     820:	0f 84 c5 00 00 00    	je     8eb <fwrite_unlocked+0xeb>
     826:	83 ec 08             	sub    $0x8,%esp
     829:	6a 00                	push   $0x0
     82b:	56                   	push   %esi
     82c:	e8 7f fe ff ff       	call   6b0 <__fflush4>
     831:	83 c4 10             	add    $0x10,%esp
     834:	85 c0                	test   %eax,%eax
     836:	0f 85 ac 00 00 00    	jne    8e8 <fwrite_unlocked+0xe8>
     83c:	85 ff                	test   %edi,%edi
     83e:	0f 84 cc 00 00 00    	je     910 <fwrite_unlocked+0x110>
     844:	8b 44 24 34          	mov    0x34(%esp),%eax
     848:	31 d2                	xor    %edx,%edx
     84a:	0f af c7             	imul   %edi,%eax
     84d:	89 c1                	mov    %eax,%ecx
     84f:	89 44 24 08          	mov    %eax,0x8(%esp)
     853:	f7 f7                	div    %edi
     855:	3b 44 24 34          	cmp    0x34(%esp),%eax
     859:	0f 85 b1 00 00 00    	jne    910 <fwrite_unlocked+0x110>
     85f:	8b 56 10             	mov    0x10(%esi),%edx
     862:	39 ca                	cmp    %ecx,%edx
     864:	0f 82 86 01 00 00    	jb     9f0 <fwrite_unlocked+0x1f0>
     86a:	8b 46 04             	mov    0x4(%esi),%eax
     86d:	a8 10                	test   $0x10,%al
     86f:	0f 85 7b 01 00 00    	jne    9f0 <fwrite_unlocked+0x1f0>
     875:	8b 4c 24 08          	mov    0x8(%esp),%ecx
     879:	2b 56 0c             	sub    0xc(%esi),%edx
     87c:	39 ca                	cmp    %ecx,%edx
     87e:	0f 47 d1             	cmova  %ecx,%edx
     881:	89 d5                	mov    %edx,%ebp
     883:	85 d2                	test   %edx,%edx
     885:	0f 84 97 00 00 00    	je     922 <fwrite_unlocked+0x122>
     88b:	a8 08                	test   $0x8,%al
     88d:	0f 84 f5 00 00 00    	je     988 <fwrite_unlocked+0x188>
     893:	f6 c4 02             	test   $0x2,%ah
     896:	0f 85 c9 00 00 00    	jne    965 <fwrite_unlocked+0x165>
     89c:	31 ff                	xor    %edi,%edi
     89e:	89 ea                	mov    %ebp,%edx
     8a0:	eb 0d                	jmp    8af <fwrite_unlocked+0xaf>
     8a2:	8d b6 00 00 00 00    	lea    0x0(%esi),%esi
     8a8:	83 c7 01             	add    $0x1,%edi
     8ab:	39 fa                	cmp    %edi,%edx
     8ad:	76 71                	jbe    920 <fwrite_unlocked+0x120>
     8af:	8b 4e 0c             	mov    0xc(%esi),%ecx
     8b2:	8b 6e 14             	mov    0x14(%esi),%ebp
     8b5:	8d 41 01             	lea    0x1(%ecx),%eax
     8b8:	89 46 0c             	mov    %eax,0xc(%esi)
     8bb:	8b 44 24 30          	mov    0x30(%esp),%eax
     8bf:	0f b6 04 38          	movzbl (%eax,%edi,1),%eax
     8c3:	88 44 0d 00          	mov    %al,0x0(%ebp,%ecx,1)
     8c7:	3c 0a                	cmp    $0xa,%al
     8c9:	75 dd                	jne    8a8 <fwrite_unlocked+0xa8>
     8cb:	89 54 24 0c          	mov    %edx,0xc(%esp)
     8cf:	83 ec 0c             	sub    $0xc,%esp
     8d2:	56                   	push   %esi
     8d3:	e8 e8 fc ff ff       	call   5c0 <fflush_unlocked>
     8d8:	83 c4 10             	add    $0x10,%esp
     8db:	8b 54 24 0c          	mov    0xc(%esp),%edx
     8df:	85 c0                	test   %eax,%eax
     8e1:	74 c5                	je     8a8 <fwrite_unlocked+0xa8>
     8e3:	8d 74 26 00          	lea    0x0(%esi,%eiz,1),%esi
     8e7:	90                   	nop
     8e8:	8b 46 04             	mov    0x4(%esi),%eax
     8eb:	83 c8 01             	or     $0x1,%eax
     8ee:	89 46 04             	mov    %eax,0x4(%esi)
     8f1:	83 c4 1c             	add    $0x1c,%esp
     8f4:	31 c0                	xor    %eax,%eax
     8f6:	5b                   	pop    %ebx
     8f7:	5e                   	pop    %esi
     8f8:	5f                   	pop    %edi
     8f9:	5d                   	pop    %ebp
     8fa:	c3                   	ret    
     8fb:	8d 74 26 00          	lea    0x0(%esi,%eiz,1),%esi
     8ff:	90                   	nop
     900:	8b 44 24 08          	mov    0x8(%esp),%eax
     904:	85 c0                	test   %eax,%eax
     906:	79 4d                	jns    955 <fwrite_unlocked+0x155>
     908:	83 4e 04 01          	orl    $0x1,0x4(%esi)
     90c:	8d 74 26 00          	lea    0x0(%esi,%eiz,1),%esi
     910:	31 c0                	xor    %eax,%eax
     912:	83 c4 1c             	add    $0x1c,%esp
     915:	5b                   	pop    %ebx
     916:	5e                   	pop    %esi
     917:	5f                   	pop    %edi
     918:	5d                   	pop    %ebp
     919:	c3                   	ret    
     91a:	8d b6 00 00 00 00    	lea    0x0(%esi),%esi
     920:	89 d5                	mov    %edx,%ebp
     922:	3b 6c 24 08          	cmp    0x8(%esp),%ebp
     926:	73 d8                	jae    900 <fwrite_unlocked+0x100>
     928:	8b 7c 24 30          	mov    0x30(%esp),%edi
     92c:	eb 0b                	jmp    939 <fwrite_unlocked+0x139>
     92e:	66 90                	xchg   %ax,%ax
     930:	83 c5 01             	add    $0x1,%ebp
     933:	3b 6c 24 08          	cmp    0x8(%esp),%ebp
     937:	73 c7                	jae    900 <fwrite_unlocked+0x100>
     939:	83 ec 08             	sub    $0x8,%esp
     93c:	56                   	push   %esi
     93d:	0f be 04 2f          	movsbl (%edi,%ebp,1),%eax
     941:	50                   	push   %eax
     942:	e8 c9 16 00 00       	call   2010 <fputc_unlocked>
     947:	83 c4 10             	add    $0x10,%esp
     94a:	83 f8 ff             	cmp    $0xffffffff,%eax
     94d:	75 e1                	jne    930 <fwrite_unlocked+0x130>
     94f:	8b 44 24 08          	mov    0x8(%esp),%eax
     953:	29 e8                	sub    %ebp,%eax
     955:	8b 54 24 34          	mov    0x34(%esp),%edx
     959:	85 d2                	test   %edx,%edx
     95b:	74 b3                	je     910 <fwrite_unlocked+0x110>
     95d:	31 d2                	xor    %edx,%edx
     95f:	f7 74 24 34          	divl   0x34(%esp)
     963:	eb ad                	jmp    912 <fwrite_unlocked+0x112>
     965:	80 e4 fd             	and    $0xfd,%ah
     968:	83 ec 0c             	sub    $0xc,%esp
     96b:	89 46 04             	mov    %eax,0x4(%esi)
     96e:	ff 36                	pushl  (%esi)
     970:	e8 6b 10 00 00       	call   19e0 <isatty>
     975:	83 c4 10             	add    $0x10,%esp
     978:	85 c0                	test   %eax,%eax
     97a:	0f 85 1c ff ff ff    	jne    89c <fwrite_unlocked+0x9c>
     980:	83 66 04 f7          	andl   $0xfffffff7,0x4(%esi)
     984:	8d 74 26 00          	lea    0x0(%esi,%eiz,1),%esi
     988:	8b 46 0c             	mov    0xc(%esi),%eax
     98b:	83 ec 04             	sub    $0x4,%esp
     98e:	03 46 14             	add    0x14(%esi),%eax
     991:	55                   	push   %ebp
     992:	ff 74 24 38          	pushl  0x38(%esp)
     996:	50                   	push   %eax
     997:	e8 ab 10 00 00       	call   1a47 <memcpy>
     99c:	8b 46 0c             	mov    0xc(%esi),%eax
     99f:	83 c4 10             	add    $0x10,%esp
     9a2:	01 e8                	add    %ebp,%eax
     9a4:	89 46 0c             	mov    %eax,0xc(%esi)
     9a7:	3b 46 10             	cmp    0x10(%esi),%eax
     9aa:	0f 85 87 00 00 00    	jne    a37 <fwrite_unlocked+0x237>
     9b0:	83 ec 0c             	sub    $0xc,%esp
     9b3:	56                   	push   %esi
     9b4:	e8 07 fc ff ff       	call   5c0 <fflush_unlocked>
     9b9:	83 c4 10             	add    $0x10,%esp
     9bc:	85 c0                	test   %eax,%eax
     9be:	0f 85 4c ff ff ff    	jne    910 <fwrite_unlocked+0x110>
     9c4:	29 6c 24 08          	sub    %ebp,0x8(%esp)
     9c8:	8b 44 24 08          	mov    0x8(%esp),%eax
     9cc:	74 69                	je     a37 <fwrite_unlocked+0x237>
     9ce:	01 6c 24 30          	add    %ebp,0x30(%esp)
     9d2:	8b 6e 10             	mov    0x10(%esi),%ebp
     9d5:	2b 6e 0c             	sub    0xc(%esi),%ebp
     9d8:	39 c5                	cmp    %eax,%ebp
     9da:	0f 47 e8             	cmova  %eax,%ebp
     9dd:	85 ed                	test   %ebp,%ebp
     9df:	0f 84 43 ff ff ff    	je     928 <fwrite_unlocked+0x128>
     9e5:	8b 46 04             	mov    0x4(%esi),%eax
     9e8:	e9 9e fe ff ff       	jmp    88b <fwrite_unlocked+0x8b>
     9ed:	8d 76 00             	lea    0x0(%esi),%esi
     9f0:	83 ec 0c             	sub    $0xc,%esp
     9f3:	56                   	push   %esi
     9f4:	e8 c7 fb ff ff       	call   5c0 <fflush_unlocked>
     9f9:	83 c4 10             	add    $0x10,%esp
     9fc:	85 c0                	test   %eax,%eax
     9fe:	0f 85 0c ff ff ff    	jne    910 <fwrite_unlocked+0x110>
     a04:	8b 7c 24 08          	mov    0x8(%esp),%edi
     a08:	8b 6c 24 30          	mov    0x30(%esp),%ebp
     a0c:	8d 74 26 00          	lea    0x0(%esi,%eiz,1),%esi
     a10:	83 ec 04             	sub    $0x4,%esp
     a13:	57                   	push   %edi
     a14:	55                   	push   %ebp
     a15:	ff 36                	pushl  (%esi)
     a17:	e8 12 02 00 00       	call   c2e <__libc_write>
     a1c:	83 c4 10             	add    $0x10,%esp
     a1f:	83 f8 ff             	cmp    $0xffffffff,%eax
     a22:	0f 85 dc fe ff ff    	jne    904 <fwrite_unlocked+0x104>
     a28:	e8 53 f8 ff ff       	call   280 <__errno_location>
     a2d:	83 38 04             	cmpl   $0x4,(%eax)
     a30:	74 de                	je     a10 <fwrite_unlocked+0x210>
     a32:	e9 d1 fe ff ff       	jmp    908 <fwrite_unlocked+0x108>
     a37:	89 f8                	mov    %edi,%eax
     a39:	e9 d4 fe ff ff       	jmp    912 <fwrite_unlocked+0x112>
     a3e:	66 90                	xchg   %ax,%ax

00000a40 <printf>:
     a40:	53                   	push   %ebx
     a41:	e8 5d 25 00 00       	call   2fa3 <__x86.get_pc_thunk.bx>
     a46:	81 c3 ce 3b 00 00    	add    $0x3bce,%ebx
     a4c:	83 ec 08             	sub    $0x8,%esp
     a4f:	8d 44 24 14          	lea    0x14(%esp),%eax
     a53:	83 ec 08             	sub    $0x8,%esp
     a56:	50                   	push   %eax
     a57:	ff 74 24 1c          	pushl  0x1c(%esp)
     a5b:	e8 60 01 00 00       	call   bc0 <vprintf>
     a60:	83 c4 18             	add    $0x18,%esp
     a63:	5b                   	pop    %ebx
     a64:	c3                   	ret    
     a65:	66 90                	xchg   %ax,%ax
     a67:	66 90                	xchg   %ax,%ax
     a69:	66 90                	xchg   %ax,%ax
     a6b:	66 90                	xchg   %ax,%ax
     a6d:	66 90                	xchg   %ax,%ax
     a6f:	90                   	nop

00000a70 <__stdin_is_tty>:
     a70:	53                   	push   %ebx
     a71:	e8 2d 25 00 00       	call   2fa3 <__x86.get_pc_thunk.bx>
     a76:	81 c3 9e 3b 00 00    	add    $0x3b9e,%ebx
     a7c:	83 ec 08             	sub    $0x8,%esp
     a7f:	8b 83 ec 00 00 00    	mov    0xec(%ebx),%eax
     a85:	85 c0                	test   %eax,%eax
     a87:	74 0f                	je     a98 <__stdin_is_tty+0x28>
     a89:	83 c4 08             	add    $0x8,%esp
     a8c:	83 e8 01             	sub    $0x1,%eax
     a8f:	5b                   	pop    %ebx
     a90:	c3                   	ret    
     a91:	8d b4 26 00 00 00 00 	lea    0x0(%esi,%eiz,1),%esi
     a98:	83 ec 0c             	sub    $0xc,%esp
     a9b:	6a 00                	push   $0x0
     a9d:	e8 3e 0f 00 00       	call   19e0 <isatty>
     aa2:	83 c4 10             	add    $0x10,%esp
     aa5:	8d 50 01             	lea    0x1(%eax),%edx
     aa8:	89 93 ec 00 00 00    	mov    %edx,0xec(%ebx)
     aae:	83 c4 08             	add    $0x8,%esp
     ab1:	5b                   	pop    %ebx
     ab2:	c3                   	ret    
     ab3:	8d b4 26 00 00 00 00 	lea    0x0(%esi,%eiz,1),%esi
     aba:	8d b6 00 00 00 00    	lea    0x0(%esi),%esi

00000ac0 <__fflush_stdin>:
     ac0:	53                   	push   %ebx
     ac1:	e8 dd 24 00 00       	call   2fa3 <__x86.get_pc_thunk.bx>
     ac6:	81 c3 4e 3b 00 00    	add    $0x3b4e,%ebx
     acc:	83 ec 14             	sub    $0x14,%esp
     acf:	ff b3 0c 00 00 00    	pushl  0xc(%ebx)
     ad5:	e8 e6 fa ff ff       	call   5c0 <fflush_unlocked>
     ada:	83 c4 18             	add    $0x18,%esp
     add:	5b                   	pop    %ebx
     ade:	c3                   	ret    
     adf:	90                   	nop

00000ae0 <__fflush_stdout>:
     ae0:	53                   	push   %ebx
     ae1:	e8 bd 24 00 00       	call   2fa3 <__x86.get_pc_thunk.bx>
     ae6:	81 c3 2e 3b 00 00    	add    $0x3b2e,%ebx
     aec:	83 ec 14             	sub    $0x14,%esp
     aef:	ff b3 6c 00 00 00    	pushl  0x6c(%ebx)
     af5:	e8 c6 fa ff ff       	call   5c0 <fflush_unlocked>
     afa:	83 c4 18             	add    $0x18,%esp
     afd:	5b                   	pop    %ebx
     afe:	c3                   	ret    
     aff:	90                   	nop
     b00:	53                   	push   %ebx
     b01:	e8 9d 24 00 00       	call   2fa3 <__x86.get_pc_thunk.bx>
     b06:	81 c3 0e 3b 00 00    	add    $0x3b0e,%ebx
     b0c:	83 ec 08             	sub    $0x8,%esp
     b0f:	ff 74 24 18          	pushl  0x18(%esp)
     b13:	ff 74 24 18          	pushl  0x18(%esp)
     b17:	6a 01                	push   $0x1
     b19:	ff 74 24 1c          	pushl  0x1c(%esp)
     b1d:	e8 de fc ff ff       	call   800 <fwrite_unlocked>
     b22:	83 c4 18             	add    $0x18,%esp
     b25:	5b                   	pop    %ebx
     b26:	c3                   	ret    
     b27:	8d b4 26 00 00 00 00 	lea    0x0(%esi,%eiz,1),%esi
     b2e:	66 90                	xchg   %ax,%ax

00000b30 <vfprintf>:
     b30:	53                   	push   %ebx
     b31:	e8 6d 24 00 00       	call   2fa3 <__x86.get_pc_thunk.bx>
     b36:	81 c3 de 3a 00 00    	add    $0x3ade,%ebx
     b3c:	83 ec 1c             	sub    $0x1c,%esp
     b3f:	65 a1 14 00 00 00    	mov    %gs:0x14,%eax
     b45:	89 44 24 10          	mov    %eax,0x10(%esp)
     b49:	31 c0                	xor    %eax,%eax
     b4b:	8b 44 24 24          	mov    0x24(%esp),%eax
     b4f:	89 44 24 08          	mov    %eax,0x8(%esp)
     b53:	8d 83 ec c4 ff ff    	lea    -0x3b14(%ebx),%eax
     b59:	89 44 24 0c          	mov    %eax,0xc(%esp)
     b5d:	ff 74 24 2c          	pushl  0x2c(%esp)
     b61:	ff 74 24 2c          	pushl  0x2c(%esp)
     b65:	8d 44 24 10          	lea    0x10(%esp),%eax
     b69:	50                   	push   %eax
     b6a:	e8 91 01 00 00       	call   d00 <__v_printf>
     b6f:	83 c4 10             	add    $0x10,%esp
     b72:	8b 54 24 0c          	mov    0xc(%esp),%edx
     b76:	65 33 15 14 00 00 00 	xor    %gs:0x14,%edx
     b7d:	75 05                	jne    b84 <vfprintf+0x54>
     b7f:	83 c4 18             	add    $0x18,%esp
     b82:	5b                   	pop    %ebx
     b83:	c3                   	ret    
     b84:	e8 f7 0e 00 00       	call   1a80 <__stack_chk_fail_local>
     b89:	66 90                	xchg   %ax,%ax
     b8b:	66 90                	xchg   %ax,%ax
     b8d:	66 90                	xchg   %ax,%ax
     b8f:	90                   	nop
     b90:	56                   	push   %esi
     b91:	53                   	push   %ebx
     b92:	e8 0c 24 00 00       	call   2fa3 <__x86.get_pc_thunk.bx>
     b97:	81 c3 7d 3a 00 00    	add    $0x3a7d,%ebx
     b9d:	83 ec 08             	sub    $0x8,%esp
     ba0:	8b 74 24 18          	mov    0x18(%esp),%esi
     ba4:	56                   	push   %esi
     ba5:	ff 74 24 18          	pushl  0x18(%esp)
     ba9:	6a 01                	push   $0x1
     bab:	e8 7e 00 00 00       	call   c2e <__libc_write>
     bb0:	39 c6                	cmp    %eax,%esi
     bb2:	0f 94 c0             	sete   %al
     bb5:	83 c4 14             	add    $0x14,%esp
     bb8:	0f b6 c0             	movzbl %al,%eax
     bbb:	5b                   	pop    %ebx
     bbc:	5e                   	pop    %esi
     bbd:	c3                   	ret    
     bbe:	66 90                	xchg   %ax,%ax

00000bc0 <vprintf>:
     bc0:	53                   	push   %ebx
     bc1:	e8 dd 23 00 00       	call   2fa3 <__x86.get_pc_thunk.bx>
     bc6:	81 c3 4e 3a 00 00    	add    $0x3a4e,%ebx
     bcc:	83 ec 1c             	sub    $0x1c,%esp
     bcf:	65 a1 14 00 00 00    	mov    %gs:0x14,%eax
     bd5:	89 44 24 10          	mov    %eax,0x10(%esp)
     bd9:	31 c0                	xor    %eax,%eax
     bdb:	c7 44 24 08 00 00 00 	movl   $0x0,0x8(%esp)
     be2:	00 
     be3:	8d 83 2c c1 ff ff    	lea    -0x3ed4(%ebx),%eax
     be9:	89 44 24 0c          	mov    %eax,0xc(%esp)
     bed:	ff 74 24 28          	pushl  0x28(%esp)
     bf1:	ff 74 24 28          	pushl  0x28(%esp)
     bf5:	8d 44 24 10          	lea    0x10(%esp),%eax
     bf9:	50                   	push   %eax
     bfa:	e8 01 01 00 00       	call   d00 <__v_printf>
     bff:	83 c4 10             	add    $0x10,%esp
     c02:	8b 54 24 0c          	mov    0xc(%esp),%edx
     c06:	65 33 15 14 00 00 00 	xor    %gs:0x14,%edx
     c0d:	75 05                	jne    c14 <vprintf+0x54>
     c0f:	83 c4 18             	add    $0x18,%esp
     c12:	5b                   	pop    %ebx
     c13:	c3                   	ret    
     c14:	e8 67 0e 00 00       	call   1a80 <__stack_chk_fail_local>

00000c19 <__libc_lseek>:
     c19:	b0 13                	mov    $0x13,%al
     c1b:	e9 20 f6 ff ff       	jmp    240 <__unified_syscall>

00000c20 <__libc_open>:
     c20:	b0 05                	mov    $0x5,%al
     c22:	e9 19 f6 ff ff       	jmp    240 <__unified_syscall>

00000c27 <set_thread_area>:
     c27:	b0 f3                	mov    $0xf3,%al
     c29:	e9 12 f6 ff ff       	jmp    240 <__unified_syscall>

00000c2e <__libc_write>:
     c2e:	b0 04                	mov    $0x4,%al
     c30:	e9 0b f6 ff ff       	jmp    240 <__unified_syscall>
     c35:	66 90                	xchg   %ax,%ax
     c37:	66 90                	xchg   %ax,%ax
     c39:	66 90                	xchg   %ax,%ax
     c3b:	66 90                	xchg   %ax,%ax
     c3d:	66 90                	xchg   %ax,%ax
     c3f:	90                   	nop
     c40:	55                   	push   %ebp
     c41:	57                   	push   %edi
     c42:	e8 67 23 00 00       	call   2fae <__x86.get_pc_thunk.di>
     c47:	81 c7 cd 39 00 00    	add    $0x39cd,%edi
     c4d:	56                   	push   %esi
     c4e:	89 d6                	mov    %edx,%esi
     c50:	53                   	push   %ebx
     c51:	89 cb                	mov    %ecx,%ebx
     c53:	83 ec 1c             	sub    $0x1c,%esp
     c56:	83 7c 24 30 0f       	cmpl   $0xf,0x30(%esp)
     c5b:	89 44 24 04          	mov    %eax,0x4(%esp)
     c5f:	89 7c 24 08          	mov    %edi,0x8(%esp)
     c63:	0f 86 8f 00 00 00    	jbe    cf8 <__libc_write+0xca>
     c69:	31 c0                	xor    %eax,%eax
     c6b:	83 7c 24 34 30       	cmpl   $0x30,0x34(%esp)
     c70:	8b 6c 24 30          	mov    0x30(%esp),%ebp
     c74:	0f 94 c0             	sete   %al
     c77:	c1 e0 04             	shl    $0x4,%eax
     c7a:	8d bc 07 2c ec ff ff 	lea    -0x13d4(%edi,%eax,1),%edi
     c81:	8d b4 26 00 00 00 00 	lea    0x0(%esi,%eiz,1),%esi
     c88:	83 ec 04             	sub    $0x4,%esp
     c8b:	ff 36                	pushl  (%esi)
     c8d:	83 ed 10             	sub    $0x10,%ebp
     c90:	6a 10                	push   $0x10
     c92:	57                   	push   %edi
     c93:	ff 13                	call   *(%ebx)
     c95:	83 c4 10             	add    $0x10,%esp
     c98:	83 fd 0f             	cmp    $0xf,%ebp
     c9b:	77 eb                	ja     c88 <__libc_write+0x5a>
     c9d:	8b 44 24 30          	mov    0x30(%esp),%eax
     ca1:	8b 7c 24 30          	mov    0x30(%esp),%edi
     ca5:	83 e8 10             	sub    $0x10,%eax
     ca8:	83 e7 0f             	and    $0xf,%edi
     cab:	83 e0 f0             	and    $0xfffffff0,%eax
     cae:	8d 50 10             	lea    0x10(%eax),%edx
     cb1:	85 ff                	test   %edi,%edi
     cb3:	74 2e                	je     ce3 <__libc_write+0xb5>
     cb5:	89 54 24 0c          	mov    %edx,0xc(%esp)
     cb9:	83 ec 04             	sub    $0x4,%esp
     cbc:	31 c0                	xor    %eax,%eax
     cbe:	ff 36                	pushl  (%esi)
     cc0:	57                   	push   %edi
     cc1:	83 7c 24 40 30       	cmpl   $0x30,0x40(%esp)
     cc6:	8b 4c 24 14          	mov    0x14(%esp),%ecx
     cca:	0f 94 c0             	sete   %al
     ccd:	c1 e0 04             	shl    $0x4,%eax
     cd0:	8d 84 01 2c ec ff ff 	lea    -0x13d4(%ecx,%eax,1),%eax
     cd7:	50                   	push   %eax
     cd8:	ff 13                	call   *(%ebx)
     cda:	8b 54 24 1c          	mov    0x1c(%esp),%edx
     cde:	83 c4 10             	add    $0x10,%esp
     ce1:	01 fa                	add    %edi,%edx
     ce3:	8b 44 24 04          	mov    0x4(%esp),%eax
     ce7:	01 10                	add    %edx,(%eax)
     ce9:	83 c4 1c             	add    $0x1c,%esp
     cec:	31 c0                	xor    %eax,%eax
     cee:	5b                   	pop    %ebx
     cef:	5e                   	pop    %esi
     cf0:	5f                   	pop    %edi
     cf1:	5d                   	pop    %ebp
     cf2:	c3                   	ret    
     cf3:	8d 74 26 00          	lea    0x0(%esi,%eiz,1),%esi
     cf7:	90                   	nop
     cf8:	8b 7c 24 30          	mov    0x30(%esp),%edi
     cfc:	31 d2                	xor    %edx,%edx
     cfe:	eb b1                	jmp    cb1 <__libc_write+0x83>

00000d00 <__v_printf>:
     d00:	e8 9a 22 00 00       	call   2f9f <__x86.get_pc_thunk.ax>
     d05:	05 0f 39 00 00       	add    $0x390f,%eax
     d0a:	55                   	push   %ebp
     d0b:	57                   	push   %edi
     d0c:	56                   	push   %esi
     d0d:	53                   	push   %ebx
     d0e:	81 ec dc 00 00 00    	sub    $0xdc,%esp
     d14:	89 44 24 08          	mov    %eax,0x8(%esp)
     d18:	8b 84 24 f8 00 00 00 	mov    0xf8(%esp),%eax
     d1f:	8b ac 24 f0 00 00 00 	mov    0xf0(%esp),%ebp
     d26:	8b bc 24 f4 00 00 00 	mov    0xf4(%esp),%edi
     d2d:	89 04 24             	mov    %eax,(%esp)
     d30:	65 a1 14 00 00 00    	mov    %gs:0x14,%eax
     d36:	89 84 24 cc 00 00 00 	mov    %eax,0xcc(%esp)
     d3d:	31 c0                	xor    %eax,%eax
     d3f:	c7 44 24 44 00 00 00 	movl   $0x0,0x44(%esp)
     d46:	00 
     d47:	0f b6 07             	movzbl (%edi),%eax
     d4a:	8d b6 00 00 00 00    	lea    0x0(%esi),%esi
     d50:	84 c0                	test   %al,%al
     d52:	0f 84 f8 00 00 00    	je     e50 <.L146+0x24>
     d58:	3c 25                	cmp    $0x25,%al
     d5a:	74 4c                	je     da8 <__v_printf+0xa8>
     d5c:	31 db                	xor    %ebx,%ebx
     d5e:	66 90                	xchg   %ax,%ax
     d60:	83 c3 01             	add    $0x1,%ebx
     d63:	0f b6 04 1f          	movzbl (%edi,%ebx,1),%eax
     d67:	8d 34 1f             	lea    (%edi,%ebx,1),%esi
     d6a:	84 c0                	test   %al,%al
     d6c:	74 04                	je     d72 <__v_printf+0x72>
     d6e:	3c 25                	cmp    $0x25,%al
     d70:	75 ee                	jne    d60 <__v_printf+0x60>
     d72:	85 db                	test   %ebx,%ebx
     d74:	0f 88 b2 00 00 00    	js     e2c <.L146>
     d7a:	89 d8                	mov    %ebx,%eax
     d7c:	03 44 24 44          	add    0x44(%esp),%eax
     d80:	0f 82 a6 00 00 00    	jb     e2c <.L146>
     d86:	83 ec 04             	sub    $0x4,%esp
     d89:	ff 75 00             	pushl  0x0(%ebp)
     d8c:	53                   	push   %ebx
     d8d:	57                   	push   %edi
     d8e:	89 f7                	mov    %esi,%edi
     d90:	ff 55 04             	call   *0x4(%ebp)
     d93:	01 5c 24 54          	add    %ebx,0x54(%esp)
     d97:	0f b6 06             	movzbl (%esi),%eax
     d9a:	83 c4 10             	add    $0x10,%esp
     d9d:	3c 25                	cmp    $0x25,%al
     d9f:	75 af                	jne    d50 <__v_printf+0x50>
     da1:	8d b4 26 00 00 00 00 	lea    0x0(%esi,%eiz,1),%esi
     da8:	31 f6                	xor    %esi,%esi
     daa:	8d 44 24 48          	lea    0x48(%esp),%eax
     dae:	c6 44 24 2c 00       	movb   $0x0,0x2c(%esp)
     db3:	8d 4f 01             	lea    0x1(%edi),%ecx
     db6:	89 44 24 24          	mov    %eax,0x24(%esp)
     dba:	89 f0                	mov    %esi,%eax
     dbc:	8b 34 24             	mov    (%esp),%esi
     dbf:	c7 44 24 04 00 00 00 	movl   $0x0,0x4(%esp)
     dc6:	00 
     dc7:	c7 44 24 0c 00 00 00 	movl   $0x0,0xc(%esp)
     dce:	00 
     dcf:	c6 44 24 2e 00       	movb   $0x0,0x2e(%esp)
     dd4:	c6 44 24 2f 00       	movb   $0x0,0x2f(%esp)
     dd9:	c6 44 24 2d 00       	movb   $0x0,0x2d(%esp)
     dde:	c6 44 24 18 00       	movb   $0x0,0x18(%esp)
     de3:	c6 44 24 23 20       	movb   $0x20,0x23(%esp)
     de8:	88 44 24 1c          	mov    %al,0x1c(%esp)
     dec:	89 6c 24 10          	mov    %ebp,0x10(%esp)
     df0:	0f b6 01             	movzbl (%ecx),%eax
     df3:	8d 51 01             	lea    0x1(%ecx),%edx
     df6:	88 44 24 43          	mov    %al,0x43(%esp)
     dfa:	3c 7a                	cmp    $0x7a,%al
     dfc:	0f 87 e6 08 00 00    	ja     16e8 <.L225>
     e02:	8b 7c 24 08          	mov    0x8(%esp),%edi
     e06:	0f b6 d8             	movzbl %al,%ebx
     e09:	8b ac 9f 2c ea ff ff 	mov    -0x15d4(%edi,%ebx,4),%ebp
     e10:	01 fd                	add    %edi,%ebp
     e12:	ff e5                	jmp    *%ebp
     e14:	8b 44 24 0c          	mov    0xc(%esp),%eax
     e18:	0b 44 24 04          	or     0x4(%esp),%eax
     e1c:	0f 85 c2 09 00 00    	jne    17e4 <.L225+0xfc>
     e22:	89 cb                	mov    %ecx,%ebx
     e24:	85 db                	test   %ebx,%ebx
     e26:	0f 89 ca 08 00 00    	jns    16f6 <.L225+0xe>

00000e2c <.L146>:
     e2c:	b8 ff ff ff ff       	mov    $0xffffffff,%eax
     e31:	8b 94 24 cc 00 00 00 	mov    0xcc(%esp),%edx
     e38:	65 33 15 14 00 00 00 	xor    %gs:0x14,%edx
     e3f:	0f 85 9c 0a 00 00    	jne    18e1 <.L225+0x1f9>
     e45:	81 c4 dc 00 00 00    	add    $0xdc,%esp
     e4b:	5b                   	pop    %ebx
     e4c:	5e                   	pop    %esi
     e4d:	5f                   	pop    %edi
     e4e:	5d                   	pop    %ebp
     e4f:	c3                   	ret    
     e50:	8b 44 24 44          	mov    0x44(%esp),%eax
     e54:	eb db                	jmp    e31 <.L146+0x5>

00000e56 <.L41>:
     e56:	c6 44 24 18 ff       	movb   $0xff,0x18(%esp)

00000e5b <.L31>:
     e5b:	80 6c 24 1c 01       	subb   $0x1,0x1c(%esp)
     e60:	89 d1                	mov    %edx,%ecx
     e62:	eb 8c                	jmp    df0 <__v_printf+0xf0>

00000e64 <.L30>:
     e64:	8d 44 24 4d          	lea    0x4d(%esp),%eax
     e68:	8b 6c 24 10          	mov    0x10(%esp),%ebp
     e6c:	89 34 24             	mov    %esi,(%esp)
     e6f:	89 d7                	mov    %edx,%edi
     e71:	0f b6 74 24 1c       	movzbl 0x1c(%esp),%esi
     e76:	89 44 24 24          	mov    %eax,0x24(%esp)
     e7a:	31 c9                	xor    %ecx,%ecx
     e7c:	c7 44 24 1c 00 00 00 	movl   $0x0,0x1c(%esp)
     e83:	00 
     e84:	c7 44 24 28 0a 00 00 	movl   $0xa,0x28(%esp)
     e8b:	00 
     e8c:	c6 44 24 10 01       	movb   $0x1,0x10(%esp)
     e91:	89 44 24 48          	mov    %eax,0x48(%esp)
     e95:	89 f0                	mov    %esi,%eax
     e97:	84 c0                	test   %al,%al
     e99:	0f 8e 7a 08 00 00    	jle    1719 <.L225+0x31>
     e9f:	3c 01                	cmp    $0x1,%al
     ea1:	0f 84 fc 08 00 00    	je     17a3 <.L225+0xbb>
     ea7:	8b 14 24             	mov    (%esp),%edx
     eaa:	80 7c 24 10 00       	cmpb   $0x0,0x10(%esp)
     eaf:	8d 42 08             	lea    0x8(%edx),%eax
     eb2:	8b 1a                	mov    (%edx),%ebx
     eb4:	8b 72 04             	mov    0x4(%edx),%esi
     eb7:	0f 84 60 09 00 00    	je     181d <.L225+0x135>
     ebd:	85 f6                	test   %esi,%esi
     ebf:	0f 89 58 09 00 00    	jns    181d <.L225+0x135>
     ec5:	f7 db                	neg    %ebx
     ec7:	89 04 24             	mov    %eax,(%esp)
     eca:	c6 44 24 10 02       	movb   $0x2,0x10(%esp)
     ecf:	83 d6 00             	adc    $0x0,%esi
     ed2:	f7 de                	neg    %esi
     ed4:	89 4c 24 30          	mov    %ecx,0x30(%esp)
     ed8:	83 ec 08             	sub    $0x8,%esp
     edb:	ff 74 24 24          	pushl  0x24(%esp)
     edf:	ff 74 24 34          	pushl  0x34(%esp)
     ee3:	56                   	push   %esi
     ee4:	53                   	push   %ebx
     ee5:	6a 7b                	push   $0x7b
     ee7:	ff 74 24 40          	pushl  0x40(%esp)
     eeb:	8b 5c 24 28          	mov    0x28(%esp),%ebx
     eef:	e8 fc 17 00 00       	call   26f0 <__lltostr>
     ef4:	83 c4 20             	add    $0x20,%esp
     ef7:	8b 4c 24 30          	mov    0x30(%esp),%ecx
     efb:	0f b6 54 24 2c       	movzbl 0x2c(%esp),%edx
     f00:	8b 74 24 48          	mov    0x48(%esp),%esi
     f04:	83 e2 01             	and    $0x1,%edx
     f07:	88 54 24 24          	mov    %dl,0x24(%esp)
     f0b:	83 f8 01             	cmp    $0x1,%eax
     f0e:	75 0e                	jne    f1e <.L30+0xba>
     f10:	84 d2                	test   %dl,%dl
     f12:	74 0a                	je     f1e <.L30+0xba>
     f14:	80 3c 0e 30          	cmpb   $0x30,(%esi,%ecx,1)
     f18:	0f 84 0a 02 00 00    	je     1128 <.L30+0x2c4>
     f1e:	01 c1                	add    %eax,%ecx
     f20:	80 7c 24 10 02       	cmpb   $0x2,0x10(%esp)
     f25:	0f 84 4b 08 00 00    	je     1776 <.L225+0x8e>
     f2b:	80 7c 24 10 00       	cmpb   $0x0,0x10(%esp)
     f30:	0f 84 de fe ff ff    	je     e14 <__v_printf+0x114>
     f36:	0f b6 54 24 2f       	movzbl 0x2f(%esp),%edx
     f3b:	0f b6 44 24 2e       	movzbl 0x2e(%esp),%eax
     f40:	08 c2                	or     %al,%dl
     f42:	0f 84 cc fe ff ff    	je     e14 <__v_printf+0x114>
     f48:	3c 01                	cmp    $0x1,%al
     f4a:	8d 5e ff             	lea    -0x1(%esi),%ebx
     f4d:	19 c0                	sbb    %eax,%eax
     f4f:	89 5c 24 48          	mov    %ebx,0x48(%esp)
     f53:	8d 59 01             	lea    0x1(%ecx),%ebx
     f56:	83 e0 f5             	and    $0xfffffff5,%eax
     f59:	83 c0 2b             	add    $0x2b,%eax
     f5c:	88 46 ff             	mov    %al,-0x1(%esi)
     f5f:	8b 44 24 0c          	mov    0xc(%esp),%eax
     f63:	0b 44 24 04          	or     0x4(%esp),%eax
     f67:	8b 74 24 48          	mov    0x48(%esp),%esi
     f6b:	0f 84 b3 fe ff ff    	je     e24 <__v_printf+0x124>
     f71:	80 7c 24 23 20       	cmpb   $0x20,0x23(%esp)
     f76:	0f 94 44 24 1c       	sete   0x1c(%esp)
     f7b:	80 7c 24 18 00       	cmpb   $0x0,0x18(%esp)
     f80:	0f 8e 00 09 00 00    	jle    1886 <.L225+0x19e>
     f86:	89 d9                	mov    %ebx,%ecx
     f88:	0f be 5c 24 18       	movsbl 0x18(%esp),%ebx
     f8d:	89 ca                	mov    %ecx,%edx
     f8f:	29 da                	sub    %ebx,%edx
     f91:	89 d8                	mov    %ebx,%eax
     f93:	89 5c 24 18          	mov    %ebx,0x18(%esp)
     f97:	89 d3                	mov    %edx,%ebx
     f99:	8b 54 24 0c          	mov    0xc(%esp),%edx
     f9d:	29 c2                	sub    %eax,%edx
     f9f:	39 44 24 0c          	cmp    %eax,0xc(%esp)
     fa3:	0f 94 c1             	sete   %cl
     fa6:	22 4c 24 24          	and    0x24(%esp),%cl
     faa:	89 54 24 10          	mov    %edx,0x10(%esp)
     fae:	88 4c 24 0c          	mov    %cl,0xc(%esp)
     fb2:	01 f0                	add    %esi,%eax
     fb4:	89 44 24 48          	mov    %eax,0x48(%esp)
     fb8:	0f b6 4c 24 2d       	movzbl 0x2d(%esp),%ecx
     fbd:	0f b6 44 24 1c       	movzbl 0x1c(%esp),%eax
     fc2:	83 f1 01             	xor    $0x1,%ecx
     fc5:	21 c8                	and    %ecx,%eax
     fc7:	80 7c 24 0c 00       	cmpb   $0x0,0xc(%esp)
     fcc:	88 4c 24 24          	mov    %cl,0x24(%esp)
     fd0:	0f 84 b3 07 00 00    	je     1789 <.L225+0xa1>
     fd6:	84 c0                	test   %al,%al
     fd8:	0f 85 92 08 00 00    	jne    1870 <.L225+0x188>
     fde:	8b 44 24 04          	mov    0x4(%esp),%eax
     fe2:	c6 44 24 2c 30       	movb   $0x30,0x2c(%esp)
     fe7:	89 44 24 10          	mov    %eax,0x10(%esp)
     feb:	8b 44 24 18          	mov    0x18(%esp),%eax
     fef:	85 c0                	test   %eax,%eax
     ff1:	74 2a                	je     101d <.L30+0x1b9>
     ff3:	8b 54 24 18          	mov    0x18(%esp),%edx
     ff7:	89 d0                	mov    %edx,%eax
     ff9:	03 44 24 44          	add    0x44(%esp),%eax
     ffd:	0f 82 29 fe ff ff    	jb     e2c <.L146>
    1003:	83 ec 04             	sub    $0x4,%esp
    1006:	ff 75 00             	pushl  0x0(%ebp)
    1009:	89 54 24 20          	mov    %edx,0x20(%esp)
    100d:	52                   	push   %edx
    100e:	56                   	push   %esi
    100f:	ff 55 04             	call   *0x4(%ebp)
    1012:	8b 44 24 28          	mov    0x28(%esp),%eax
    1016:	01 44 24 54          	add    %eax,0x54(%esp)
    101a:	83 c4 10             	add    $0x10,%esp
    101d:	0f b6 54 24 23       	movzbl 0x23(%esp),%edx
    1022:	8d 75 04             	lea    0x4(%ebp),%esi
    1025:	80 fa 20             	cmp    $0x20,%dl
    1028:	74 44                	je     106e <.L30+0x20a>
    102a:	80 7c 24 24 00       	cmpb   $0x0,0x24(%esp)
    102f:	74 3d                	je     106e <.L30+0x20a>
    1031:	8b 44 24 10          	mov    0x10(%esp),%eax
    1035:	2b 44 24 04          	sub    0x4(%esp),%eax
    1039:	85 c0                	test   %eax,%eax
    103b:	7e 31                	jle    106e <.L30+0x20a>
    103d:	89 c1                	mov    %eax,%ecx
    103f:	03 4c 24 44          	add    0x44(%esp),%ecx
    1043:	0f 82 e3 fd ff ff    	jb     e2c <.L146>
    1049:	8d 4c 24 44          	lea    0x44(%esp),%ecx
    104d:	83 ec 08             	sub    $0x8,%esp
    1050:	89 4c 24 14          	mov    %ecx,0x14(%esp)
    1054:	89 f1                	mov    %esi,%ecx
    1056:	52                   	push   %edx
    1057:	89 ea                	mov    %ebp,%edx
    1059:	50                   	push   %eax
    105a:	8b 44 24 1c          	mov    0x1c(%esp),%eax
    105e:	e8 dd fb ff ff       	call   c40 <__libc_write+0x12>
    1063:	83 c4 10             	add    $0x10,%esp
    1066:	85 c0                	test   %eax,%eax
    1068:	0f 85 be fd ff ff    	jne    e2c <.L146>
    106e:	8b 44 24 04          	mov    0x4(%esp),%eax
    1072:	29 d8                	sub    %ebx,%eax
    1074:	85 c0                	test   %eax,%eax
    1076:	7e 36                	jle    10ae <.L30+0x24a>
    1078:	89 c2                	mov    %eax,%edx
    107a:	03 54 24 44          	add    0x44(%esp),%edx
    107e:	0f 82 a8 fd ff ff    	jb     e2c <.L146>
    1084:	8d 4c 24 44          	lea    0x44(%esp),%ecx
    1088:	83 ec 08             	sub    $0x8,%esp
    108b:	89 4c 24 14          	mov    %ecx,0x14(%esp)
    108f:	0f b6 54 24 34       	movzbl 0x34(%esp),%edx
    1094:	89 f1                	mov    %esi,%ecx
    1096:	52                   	push   %edx
    1097:	89 ea                	mov    %ebp,%edx
    1099:	50                   	push   %eax
    109a:	8b 44 24 1c          	mov    0x1c(%esp),%eax
    109e:	e8 9d fb ff ff       	call   c40 <__libc_write+0x12>
    10a3:	83 c4 10             	add    $0x10,%esp
    10a6:	85 c0                	test   %eax,%eax
    10a8:	0f 85 7e fd ff ff    	jne    e2c <.L146>
    10ae:	85 db                	test   %ebx,%ebx
    10b0:	0f 88 76 fd ff ff    	js     e2c <.L146>
    10b6:	89 d8                	mov    %ebx,%eax
    10b8:	03 44 24 44          	add    0x44(%esp),%eax
    10bc:	0f 82 6a fd ff ff    	jb     e2c <.L146>
    10c2:	83 ec 04             	sub    $0x4,%esp
    10c5:	ff 75 00             	pushl  0x0(%ebp)
    10c8:	53                   	push   %ebx
    10c9:	ff 74 24 54          	pushl  0x54(%esp)
    10cd:	ff 55 04             	call   *0x4(%ebp)
    10d0:	03 5c 24 54          	add    0x54(%esp),%ebx
    10d4:	89 5c 24 54          	mov    %ebx,0x54(%esp)
    10d8:	83 c4 10             	add    $0x10,%esp
    10db:	80 7c 24 2d 00       	cmpb   $0x0,0x2d(%esp)
    10e0:	0f 84 61 fc ff ff    	je     d47 <__v_printf+0x47>
    10e6:	8b 54 24 10          	mov    0x10(%esp),%edx
    10ea:	2b 54 24 04          	sub    0x4(%esp),%edx
    10ee:	85 d2                	test   %edx,%edx
    10f0:	0f 8e 51 fc ff ff    	jle    d47 <__v_printf+0x47>
    10f6:	01 d3                	add    %edx,%ebx
    10f8:	0f 82 2e fd ff ff    	jb     e2c <.L146>
    10fe:	8d 44 24 44          	lea    0x44(%esp),%eax
    1102:	83 ec 08             	sub    $0x8,%esp
    1105:	0f b6 4c 24 2b       	movzbl 0x2b(%esp),%ecx
    110a:	51                   	push   %ecx
    110b:	89 f1                	mov    %esi,%ecx
    110d:	52                   	push   %edx
    110e:	89 ea                	mov    %ebp,%edx
    1110:	e8 2b fb ff ff       	call   c40 <__libc_write+0x12>
    1115:	83 c4 10             	add    $0x10,%esp
    1118:	85 c0                	test   %eax,%eax
    111a:	0f 84 27 fc ff ff    	je     d47 <__v_printf+0x47>
    1120:	e9 07 fd ff ff       	jmp    e2c <.L146>
    1125:	8d 76 00             	lea    0x0(%esi),%esi
    1128:	8b 44 24 04          	mov    0x4(%esp),%eax
    112c:	85 c0                	test   %eax,%eax
    112e:	74 10                	je     1140 <.L30+0x2dc>
    1130:	80 7c 24 18 00       	cmpb   $0x0,0x18(%esp)
    1135:	c6 44 24 18 00       	movb   $0x0,0x18(%esp)
    113a:	0f 8e e0 fd ff ff    	jle    f20 <.L30+0xbc>
    1140:	c6 44 24 18 00       	movb   $0x0,0x18(%esp)
    1145:	31 c9                	xor    %ecx,%ecx
    1147:	e9 d4 fd ff ff       	jmp    f20 <.L30+0xbc>

0000114c <.L22>:
    114c:	0f b6 7c 24 1c       	movzbl 0x1c(%esp),%edi
    1151:	8d 47 01             	lea    0x1(%edi),%eax
    1154:	89 d1                	mov    %edx,%ecx
    1156:	88 44 24 1c          	mov    %al,0x1c(%esp)
    115a:	e9 91 fc ff ff       	jmp    df0 <__v_printf+0xf0>

0000115f <.L29>:
    115f:	80 7c 24 18 00       	cmpb   $0x0,0x18(%esp)
    1164:	8b 6c 24 10          	mov    0x10(%esp),%ebp
    1168:	89 34 24             	mov    %esi,(%esp)
    116b:	89 d7                	mov    %edx,%edi
    116d:	0f b6 74 24 1c       	movzbl 0x1c(%esp),%esi
    1172:	0f 84 3b 07 00 00    	je     18b3 <.L225+0x1cb>
    1178:	8d 44 24 4e          	lea    0x4e(%esp),%eax
    117c:	c6 44 24 4d 30       	movb   $0x30,0x4d(%esp)
    1181:	b9 01 00 00 00       	mov    $0x1,%ecx
    1186:	89 44 24 24          	mov    %eax,0x24(%esp)
    118a:	8d 44 24 4d          	lea    0x4d(%esp),%eax
    118e:	c7 44 24 1c 00 00 00 	movl   $0x0,0x1c(%esp)
    1195:	00 
    1196:	c7 44 24 28 08 00 00 	movl   $0x8,0x28(%esp)
    119d:	00 
    119e:	c6 44 24 18 01       	movb   $0x1,0x18(%esp)
    11a3:	c6 44 24 10 00       	movb   $0x0,0x10(%esp)
    11a8:	e9 e4 fc ff ff       	jmp    e91 <.L30+0x2d>

000011ad <.L28>:
    11ad:	c6 44 24 43 78       	movb   $0x78,0x43(%esp)
    11b2:	8b 6c 24 10          	mov    0x10(%esp),%ebp
    11b6:	89 d7                	mov    %edx,%edi
    11b8:	b8 78 00 00 00       	mov    $0x78,%eax
    11bd:	c7 44 24 1c 00 00 00 	movl   $0x0,0x1c(%esp)
    11c4:	00 
    11c5:	89 34 24             	mov    %esi,(%esp)
    11c8:	be 01 00 00 00       	mov    $0x1,%esi
    11cd:	c6 44 24 4d 30       	movb   $0x30,0x4d(%esp)
    11d2:	b9 02 00 00 00       	mov    $0x2,%ecx
    11d7:	c6 44 24 18 02       	movb   $0x2,0x18(%esp)
    11dc:	88 44 24 4e          	mov    %al,0x4e(%esp)
    11e0:	8d 44 24 4f          	lea    0x4f(%esp),%eax
    11e4:	89 44 24 24          	mov    %eax,0x24(%esp)
    11e8:	8d 44 24 4d          	lea    0x4d(%esp),%eax
    11ec:	8b 5c 24 0c          	mov    0xc(%esp),%ebx
    11f0:	8b 54 24 04          	mov    0x4(%esp),%edx
    11f4:	c6 44 24 10 00       	movb   $0x0,0x10(%esp)
    11f9:	c7 44 24 28 10 00 00 	movl   $0x10,0x28(%esp)
    1200:	00 
    1201:	39 d3                	cmp    %edx,%ebx
    1203:	0f 42 da             	cmovb  %edx,%ebx
    1206:	89 5c 24 0c          	mov    %ebx,0xc(%esp)
    120a:	e9 82 fc ff ff       	jmp    e91 <.L30+0x2d>

0000120f <.L26>:
    120f:	8d 4e 04             	lea    0x4(%esi),%ecx
    1212:	8b 36                	mov    (%esi),%esi
    1214:	8b 6c 24 10          	mov    0x10(%esp),%ebp
    1218:	89 d7                	mov    %edx,%edi
    121a:	89 0c 24             	mov    %ecx,(%esp)
    121d:	89 74 24 48          	mov    %esi,0x48(%esp)
    1221:	85 f6                	test   %esi,%esi
    1223:	0f 84 02 06 00 00    	je     182b <.L225+0x143>
    1229:	83 ec 0c             	sub    $0xc,%esp
    122c:	56                   	push   %esi
    122d:	8b 5c 24 18          	mov    0x18(%esp),%ebx
    1231:	e8 8e 08 00 00       	call   1ac4 <strlen>
    1236:	83 c4 10             	add    $0x10,%esp
    1239:	89 c3                	mov    %eax,%ebx
    123b:	8b 54 24 04          	mov    0x4(%esp),%edx
    123f:	39 da                	cmp    %ebx,%edx
    1241:	73 08                	jae    124b <.L26+0x3c>
    1243:	80 7c 24 2c 00       	cmpb   $0x0,0x2c(%esp)
    1248:	0f 45 da             	cmovne %edx,%ebx
    124b:	8b 44 24 0c          	mov    0xc(%esp),%eax
    124f:	85 c0                	test   %eax,%eax
    1251:	0f 84 9f 04 00 00    	je     16f6 <.L225+0xe>
    1257:	c6 44 24 1c 01       	movb   $0x1,0x1c(%esp)
    125c:	c6 44 24 2c 20       	movb   $0x20,0x2c(%esp)
    1261:	c6 44 24 23 20       	movb   $0x20,0x23(%esp)
    1266:	0f b6 4c 24 2d       	movzbl 0x2d(%esp),%ecx
    126b:	0f b6 44 24 1c       	movzbl 0x1c(%esp),%eax
    1270:	89 5c 24 04          	mov    %ebx,0x4(%esp)
    1274:	c7 44 24 18 00 00 00 	movl   $0x0,0x18(%esp)
    127b:	00 
    127c:	83 f1 01             	xor    $0x1,%ecx
    127f:	88 4c 24 24          	mov    %cl,0x24(%esp)
    1283:	21 c8                	and    %ecx,%eax
    1285:	8b 4c 24 0c          	mov    0xc(%esp),%ecx
    1289:	89 4c 24 10          	mov    %ecx,0x10(%esp)
    128d:	84 c0                	test   %al,%al
    128f:	0f 84 56 fd ff ff    	je     feb <.L30+0x187>
    1295:	8b 54 24 10          	mov    0x10(%esp),%edx
    1299:	2b 54 24 04          	sub    0x4(%esp),%edx
    129d:	8d 4d 04             	lea    0x4(%ebp),%ecx
    12a0:	85 d2                	test   %edx,%edx
    12a2:	7e 28                	jle    12cc <.L26+0xbd>
    12a4:	89 d0                	mov    %edx,%eax
    12a6:	03 44 24 44          	add    0x44(%esp),%eax
    12aa:	0f 82 7c fb ff ff    	jb     e2c <.L146>
    12b0:	8d 44 24 44          	lea    0x44(%esp),%eax
    12b4:	83 ec 08             	sub    $0x8,%esp
    12b7:	6a 20                	push   $0x20
    12b9:	52                   	push   %edx
    12ba:	89 ea                	mov    %ebp,%edx
    12bc:	e8 7f f9 ff ff       	call   c40 <__libc_write+0x12>
    12c1:	83 c4 10             	add    $0x10,%esp
    12c4:	85 c0                	test   %eax,%eax
    12c6:	0f 85 60 fb ff ff    	jne    e2c <.L146>
    12cc:	8b 54 24 18          	mov    0x18(%esp),%edx
    12d0:	85 d2                	test   %edx,%edx
    12d2:	0f 85 1b fd ff ff    	jne    ff3 <.L30+0x18f>
    12d8:	8d 75 04             	lea    0x4(%ebp),%esi
    12db:	e9 8e fd ff ff       	jmp    106e <.L30+0x20a>

000012e0 <.L25>:
    12e0:	8d 44 24 4d          	lea    0x4d(%esp),%eax
    12e4:	8b 6c 24 10          	mov    0x10(%esp),%ebp
    12e8:	89 34 24             	mov    %esi,(%esp)
    12eb:	89 d7                	mov    %edx,%edi
    12ed:	0f b6 74 24 1c       	movzbl 0x1c(%esp),%esi
    12f2:	89 44 24 24          	mov    %eax,0x24(%esp)
    12f6:	31 c9                	xor    %ecx,%ecx
    12f8:	c7 44 24 1c 00 00 00 	movl   $0x0,0x1c(%esp)
    12ff:	00 
    1300:	c7 44 24 28 0a 00 00 	movl   $0xa,0x28(%esp)
    1307:	00 
    1308:	c6 44 24 10 00       	movb   $0x0,0x10(%esp)
    130d:	e9 7f fb ff ff       	jmp    e91 <.L30+0x2d>

00001312 <.L127>:
    1312:	89 34 24             	mov    %esi,(%esp)
    1315:	0f b6 74 24 1c       	movzbl 0x1c(%esp),%esi
    131a:	89 d7                	mov    %edx,%edi
    131c:	c7 44 24 1c 00 00 00 	movl   $0x0,0x1c(%esp)
    1323:	00 
    1324:	8b 6c 24 10          	mov    0x10(%esp),%ebp
    1328:	80 7c 24 18 00       	cmpb   $0x0,0x18(%esp)
    132d:	0f 85 9a fe ff ff    	jne    11cd <.L28+0x20>
    1333:	8d 44 24 4d          	lea    0x4d(%esp),%eax
    1337:	31 c9                	xor    %ecx,%ecx
    1339:	89 44 24 24          	mov    %eax,0x24(%esp)
    133d:	e9 aa fe ff ff       	jmp    11ec <.L28+0x3f>

00001342 <.L42>:
    1342:	c6 44 24 2f 01       	movb   $0x1,0x2f(%esp)
    1347:	89 d1                	mov    %edx,%ecx
    1349:	e9 a2 fa ff ff       	jmp    df0 <__v_printf+0xf0>

0000134e <.L226>:
    134e:	89 34 24             	mov    %esi,(%esp)
    1351:	8b 6c 24 10          	mov    0x10(%esp),%ebp
    1355:	89 d7                	mov    %edx,%edi
    1357:	83 7c 24 44 ff       	cmpl   $0xffffffff,0x44(%esp)
    135c:	0f 84 ca fa ff ff    	je     e2c <.L146>
    1362:	83 ec 04             	sub    $0x4,%esp
    1365:	ff 75 00             	pushl  0x0(%ebp)
    1368:	6a 01                	push   $0x1
    136a:	8d 44 24 4f          	lea    0x4f(%esp),%eax
    136e:	50                   	push   %eax
    136f:	ff 55 04             	call   *0x4(%ebp)
    1372:	83 44 24 54 01       	addl   $0x1,0x54(%esp)
    1377:	83 c4 10             	add    $0x10,%esp
    137a:	e9 c8 f9 ff ff       	jmp    d47 <__v_printf+0x47>

0000137f <.L39>:
    137f:	8b 06                	mov    (%esi),%eax
    1381:	8d 4e 04             	lea    0x4(%esi),%ecx
    1384:	85 c0                	test   %eax,%eax
    1386:	79 07                	jns    138f <.L39+0x10>
    1388:	c6 44 24 2d 01       	movb   $0x1,0x2d(%esp)
    138d:	f7 d8                	neg    %eax
    138f:	89 44 24 0c          	mov    %eax,0xc(%esp)
    1393:	3d 00 28 00 00       	cmp    $0x2800,%eax
    1398:	0f 8f 8e fa ff ff    	jg     e2c <.L146>
    139e:	89 ce                	mov    %ecx,%esi
    13a0:	89 d1                	mov    %edx,%ecx
    13a2:	e9 49 fa ff ff       	jmp    df0 <__v_printf+0xf0>

000013a7 <.L38>:
    13a7:	c6 44 24 2e 01       	movb   $0x1,0x2e(%esp)
    13ac:	89 d1                	mov    %edx,%ecx
    13ae:	e9 3d fa ff ff       	jmp    df0 <__v_printf+0xf0>

000013b3 <.L125>:
    13b3:	c6 44 24 2d 01       	movb   $0x1,0x2d(%esp)
    13b8:	89 d1                	mov    %edx,%ecx
    13ba:	e9 31 fa ff ff       	jmp    df0 <__v_printf+0xf0>

000013bf <.L37>:
    13bf:	80 79 01 2a          	cmpb   $0x2a,0x1(%ecx)
    13c3:	0f 85 7a 04 00 00    	jne    1843 <.L225+0x15b>
    13c9:	8b 06                	mov    (%esi),%eax
    13cb:	8d 51 02             	lea    0x2(%ecx),%edx
    13ce:	85 c0                	test   %eax,%eax
    13d0:	b8 00 00 00 00       	mov    $0x0,%eax
    13d5:	0f 49 06             	cmovns (%esi),%eax
    13d8:	83 c6 04             	add    $0x4,%esi
    13db:	89 44 24 04          	mov    %eax,0x4(%esp)
    13df:	81 7c 24 04 00 28 00 	cmpl   $0x2800,0x4(%esp)
    13e6:	00 
    13e7:	0f 87 3f fa ff ff    	ja     e2c <.L146>
    13ed:	c6 44 24 2c 01       	movb   $0x1,0x2c(%esp)
    13f2:	89 d1                	mov    %edx,%ecx
    13f4:	e9 f7 f9 ff ff       	jmp    df0 <__v_printf+0xf0>

000013f9 <.L36>:
    13f9:	80 7c 24 2c 00       	cmpb   $0x0,0x2c(%esp)
    13fe:	0f 85 28 fa ff ff    	jne    e2c <.L146>
    1404:	83 ec 04             	sub    $0x4,%esp
    1407:	6a 0a                	push   $0xa
    1409:	ff 74 24 2c          	pushl  0x2c(%esp)
    140d:	51                   	push   %ecx
    140e:	8b 5c 24 18          	mov    0x18(%esp),%ebx
    1412:	e8 c9 07 00 00       	call   1be0 <strtoul>
    1417:	89 44 24 1c          	mov    %eax,0x1c(%esp)
    141b:	83 c4 10             	add    $0x10,%esp
    141e:	3d 00 28 00 00       	cmp    $0x2800,%eax
    1423:	0f 87 03 fa ff ff    	ja     e2c <.L146>
    1429:	80 7c 24 43 30       	cmpb   $0x30,0x43(%esp)
    142e:	75 16                	jne    1446 <.L36+0x4d>
    1430:	0f b6 54 24 23       	movzbl 0x23(%esp),%edx
    1435:	80 7c 24 2d 00       	cmpb   $0x0,0x2d(%esp)
    143a:	b8 30 00 00 00       	mov    $0x30,%eax
    143f:	0f 44 d0             	cmove  %eax,%edx
    1442:	88 54 24 23          	mov    %dl,0x23(%esp)
    1446:	8b 54 24 48          	mov    0x48(%esp),%edx
    144a:	89 d1                	mov    %edx,%ecx
    144c:	e9 9f f9 ff ff       	jmp    df0 <__v_printf+0xf0>

00001451 <.L27>:
    1451:	0f b6 7c 24 1c       	movzbl 0x1c(%esp),%edi
    1456:	83 c7 01             	add    $0x1,%edi
    1459:	e9 f3 fc ff ff       	jmp    1151 <.L22+0x5>

0000145e <.L35>:
    145e:	89 34 24             	mov    %esi,(%esp)
    1461:	8b 6c 24 10          	mov    0x10(%esp),%ebp
    1465:	89 d7                	mov    %edx,%edi
    1467:	0f b6 74 24 1c       	movzbl 0x1c(%esp),%esi
    146c:	c7 44 24 1c 01 00 00 	movl   $0x1,0x1c(%esp)
    1473:	00 
    1474:	e9 af fe ff ff       	jmp    1328 <.L127+0x16>

00001479 <.L126>:
    1479:	8d 44 24 4d          	lea    0x4d(%esp),%eax
    147d:	8b 6c 24 10          	mov    0x10(%esp),%ebp
    1481:	89 34 24             	mov    %esi,(%esp)
    1484:	89 d7                	mov    %edx,%edi
    1486:	0f b6 74 24 1c       	movzbl 0x1c(%esp),%esi
    148b:	89 44 24 24          	mov    %eax,0x24(%esp)
    148f:	31 c9                	xor    %ecx,%ecx
    1491:	c7 44 24 1c 00 00 00 	movl   $0x0,0x1c(%esp)
    1498:	00 
    1499:	c7 44 24 28 02 00 00 	movl   $0x2,0x28(%esp)
    14a0:	00 
    14a1:	c6 44 24 10 00       	movb   $0x0,0x10(%esp)
    14a6:	e9 e6 f9 ff ff       	jmp    e91 <.L30+0x2d>

000014ab <.L33>:
    14ab:	8b 06                	mov    (%esi),%eax
    14ad:	8b 6c 24 10          	mov    0x10(%esp),%ebp
    14b1:	89 d7                	mov    %edx,%edi
    14b3:	88 44 24 43          	mov    %al,0x43(%esp)
    14b7:	8d 46 04             	lea    0x4(%esi),%eax
    14ba:	89 04 24             	mov    %eax,(%esp)
    14bd:	e9 95 fe ff ff       	jmp    1357 <.L226+0x9>

000014c2 <.L32>:
    14c2:	89 c1                	mov    %eax,%ecx
    14c4:	89 d7                	mov    %edx,%edi
    14c6:	8b 54 24 0c          	mov    0xc(%esp),%edx
    14ca:	dd 06                	fldl   (%esi)
    14cc:	83 e1 5f             	and    $0x5f,%ecx
    14cf:	8b 6c 24 10          	mov    0x10(%esp),%ebp
    14d3:	80 f9 47             	cmp    $0x47,%cl
    14d6:	0f 94 c1             	sete   %cl
    14d9:	dd 54 24 10          	fstl   0x10(%esp)
    14dd:	0f b6 c9             	movzbl %cl,%ecx
    14e0:	89 cb                	mov    %ecx,%ebx
    14e2:	83 cb 02             	or     $0x2,%ebx
    14e5:	a8 20                	test   $0x20,%al
    14e7:	8d 46 08             	lea    0x8(%esi),%eax
    14ea:	0f 44 cb             	cmove  %ebx,%ecx
    14ed:	85 d2                	test   %edx,%edx
    14ef:	bb 01 00 00 00       	mov    $0x1,%ebx
    14f4:	89 04 24             	mov    %eax,(%esp)
    14f7:	0f 45 da             	cmovne %edx,%ebx
    14fa:	80 7c 24 2c 00       	cmpb   $0x0,0x2c(%esp)
    14ff:	0f b6 54 24 2e       	movzbl 0x2e(%esp),%edx
    1504:	8d 44 24 4d          	lea    0x4d(%esp),%eax
    1508:	89 5c 24 0c          	mov    %ebx,0xc(%esp)
    150c:	bb 06 00 00 00       	mov    $0x6,%ebx
    1511:	0f 45 5c 24 04       	cmovne 0x4(%esp),%ebx
    1516:	89 44 24 48          	mov    %eax,0x48(%esp)
    151a:	89 5c 24 04          	mov    %ebx,0x4(%esp)
    151e:	88 54 24 24          	mov    %dl,0x24(%esp)
    1522:	84 d2                	test   %dl,%dl
    1524:	75 0d                	jne    1533 <.L32+0x71>
    1526:	d9 ee                	fldz   
    1528:	df f1                	fcomip %st(1),%st
    152a:	dd d8                	fstp   %st(0)
    152c:	0f 97 44 24 24       	seta   0x24(%esp)
    1531:	eb 02                	jmp    1535 <.L32+0x73>
    1533:	dd d8                	fstp   %st(0)
    1535:	83 ec 04             	sub    $0x4,%esp
    1538:	51                   	push   %ecx
    1539:	89 4c 24 24          	mov    %ecx,0x24(%esp)
    153d:	ff 74 24 0c          	pushl  0xc(%esp)
    1541:	ff 74 24 18          	pushl  0x18(%esp)
    1545:	6a 7f                	push   $0x7f
    1547:	50                   	push   %eax
    1548:	ff 74 24 2c          	pushl  0x2c(%esp)
    154c:	ff 74 24 2c          	pushl  0x2c(%esp)
    1550:	8b 5c 24 28          	mov    0x28(%esp),%ebx
    1554:	e8 a7 0b 00 00       	call   2100 <__dtostr>
    1559:	83 c4 20             	add    $0x20,%esp
    155c:	dd 44 24 10          	fldl   0x10(%esp)
    1560:	8b 4c 24 1c          	mov    0x1c(%esp),%ecx
    1564:	df e8                	fucomip %st(0),%st
    1566:	0f 8a 1e 01 00 00    	jp     168a <.L32+0x1c8>
    156c:	dd 44 24 10          	fldl   0x10(%esp)
    1570:	8b 74 24 48          	mov    0x48(%esp),%esi
    1574:	89 44 24 28          	mov    %eax,0x28(%esp)
    1578:	dd 5c 24 38          	fstpl  0x38(%esp)
    157c:	dd 44 24 38          	fldl   0x38(%esp)
    1580:	d9 e5                	fxam   
    1582:	df e0                	fnstsw %ax
    1584:	dd d8                	fstp   %st(0)
    1586:	80 e4 45             	and    $0x45,%ah
    1589:	80 fc 05             	cmp    $0x5,%ah
    158c:	0f 84 fc 00 00 00    	je     168e <.L32+0x1cc>
    1592:	83 e1 01             	and    $0x1,%ecx
    1595:	80 7c 24 2c 00       	cmpb   $0x0,0x2c(%esp)
    159a:	89 4c 24 1c          	mov    %ecx,0x1c(%esp)
    159e:	74 3a                	je     15da <.L32+0x118>
    15a0:	83 ec 08             	sub    $0x8,%esp
    15a3:	6a 2e                	push   $0x2e
    15a5:	56                   	push   %esi
    15a6:	8b 5c 24 18          	mov    0x18(%esp),%ebx
    15aa:	e8 e5 04 00 00       	call   1a94 <strchr>
    15af:	83 c4 10             	add    $0x10,%esp
    15b2:	8b 54 24 28          	mov    0x28(%esp),%edx
    15b6:	85 c0                	test   %eax,%eax
    15b8:	0f 85 32 03 00 00    	jne    18f0 <.L225+0x208>
    15be:	80 7c 24 18 00       	cmpb   $0x0,0x18(%esp)
    15c3:	0f 84 93 00 00 00    	je     165c <.L32+0x19a>
    15c9:	c6 04 16 2e          	movb   $0x2e,(%esi,%edx,1)
    15cd:	8b 44 24 48          	mov    0x48(%esp),%eax
    15d1:	c6 44 10 01 00       	movb   $0x0,0x1(%eax,%edx,1)
    15d6:	8b 74 24 48          	mov    0x48(%esp),%esi
    15da:	8b 4c 24 1c          	mov    0x1c(%esp),%ecx
    15de:	85 c9                	test   %ecx,%ecx
    15e0:	74 7a                	je     165c <.L32+0x19a>
    15e2:	83 ec 08             	sub    $0x8,%esp
    15e5:	6a 2e                	push   $0x2e
    15e7:	56                   	push   %esi
    15e8:	8b 5c 24 18          	mov    0x18(%esp),%ebx
    15ec:	e8 a3 04 00 00       	call   1a94 <strchr>
    15f1:	83 c4 10             	add    $0x10,%esp
    15f4:	85 c0                	test   %eax,%eax
    15f6:	74 64                	je     165c <.L32+0x19a>
    15f8:	83 ec 08             	sub    $0x8,%esp
    15fb:	6a 65                	push   $0x65
    15fd:	50                   	push   %eax
    15fe:	8b 5c 24 18          	mov    0x18(%esp),%ebx
    1602:	89 44 24 28          	mov    %eax,0x28(%esp)
    1606:	e8 89 04 00 00       	call   1a94 <strchr>
    160b:	83 c4 10             	add    $0x10,%esp
    160e:	8b 4c 24 18          	mov    0x18(%esp),%ecx
    1612:	89 c6                	mov    %eax,%esi
    1614:	80 39 00             	cmpb   $0x0,(%ecx)
    1617:	74 08                	je     1621 <.L32+0x15f>
    1619:	83 c1 01             	add    $0x1,%ecx
    161c:	80 39 00             	cmpb   $0x0,(%ecx)
    161f:	75 f8                	jne    1619 <.L32+0x157>
    1621:	85 f6                	test   %esi,%esi
    1623:	0f 45 ce             	cmovne %esi,%ecx
    1626:	eb 02                	jmp    162a <.L32+0x168>
    1628:	89 c1                	mov    %eax,%ecx
    162a:	0f b6 59 ff          	movzbl -0x1(%ecx),%ebx
    162e:	8d 41 ff             	lea    -0x1(%ecx),%eax
    1631:	80 fb 30             	cmp    $0x30,%bl
    1634:	74 f2                	je     1628 <.L32+0x166>
    1636:	80 fb 2e             	cmp    $0x2e,%bl
    1639:	0f 45 c1             	cmovne %ecx,%eax
    163c:	c6 00 00             	movb   $0x0,(%eax)
    163f:	85 f6                	test   %esi,%esi
    1641:	0f 84 f0 02 00 00    	je     1937 <.L225+0x24f>
    1647:	83 ec 08             	sub    $0x8,%esp
    164a:	56                   	push   %esi
    164b:	50                   	push   %eax
    164c:	8b 5c 24 18          	mov    0x18(%esp),%ebx
    1650:	e8 57 04 00 00       	call   1aac <strcpy>
    1655:	8b 74 24 58          	mov    0x58(%esp),%esi
    1659:	83 c4 10             	add    $0x10,%esp
    165c:	0f b6 54 24 2f       	movzbl 0x2f(%esp),%edx
    1661:	0f b6 44 24 2e       	movzbl 0x2e(%esp),%eax
    1666:	08 c2                	or     %al,%dl
    1668:	74 24                	je     168e <.L32+0x1cc>
    166a:	d9 ee                	fldz   
    166c:	dd 44 24 10          	fldl   0x10(%esp)
    1670:	df f1                	fcomip %st(1),%st
    1672:	dd d8                	fstp   %st(0)
    1674:	72 18                	jb     168e <.L32+0x1cc>
    1676:	3c 01                	cmp    $0x1,%al
    1678:	8d 4e ff             	lea    -0x1(%esi),%ecx
    167b:	19 c0                	sbb    %eax,%eax
    167d:	89 4c 24 48          	mov    %ecx,0x48(%esp)
    1681:	83 e0 f5             	and    $0xfffffff5,%eax
    1684:	83 c0 2b             	add    $0x2b,%eax
    1687:	88 46 ff             	mov    %al,-0x1(%esi)
    168a:	8b 74 24 48          	mov    0x48(%esp),%esi
    168e:	83 ec 0c             	sub    $0xc,%esp
    1691:	56                   	push   %esi
    1692:	8b 5c 24 18          	mov    0x18(%esp),%ebx
    1696:	e8 29 04 00 00       	call   1ac4 <strlen>
    169b:	83 c4 10             	add    $0x10,%esp
    169e:	8b 4c 24 0c          	mov    0xc(%esp),%ecx
    16a2:	89 c3                	mov    %eax,%ebx
    16a4:	39 c1                	cmp    %eax,%ecx
    16a6:	0f 42 c8             	cmovb  %eax,%ecx
    16a9:	80 7c 24 23 20       	cmpb   $0x20,0x23(%esp)
    16ae:	0f 94 44 24 1c       	sete   0x1c(%esp)
    16b3:	80 7c 24 24 00       	cmpb   $0x0,0x24(%esp)
    16b8:	89 4c 24 0c          	mov    %ecx,0xc(%esp)
    16bc:	0f 84 15 02 00 00    	je     18d7 <.L225+0x1ef>
    16c2:	83 e9 01             	sub    $0x1,%ecx
    16c5:	83 eb 01             	sub    $0x1,%ebx
    16c8:	c6 44 24 0c 00       	movb   $0x0,0xc(%esp)
    16cd:	b8 01 00 00 00       	mov    $0x1,%eax
    16d2:	89 4c 24 10          	mov    %ecx,0x10(%esp)
    16d6:	c6 44 24 2c 00       	movb   $0x0,0x2c(%esp)
    16db:	c7 44 24 18 01 00 00 	movl   $0x1,0x18(%esp)
    16e2:	00 
    16e3:	e9 ca f8 ff ff       	jmp    fb2 <.L30+0x14e>

000016e8 <.L225>:
    16e8:	8b 6c 24 10          	mov    0x10(%esp),%ebp
    16ec:	89 d7                	mov    %edx,%edi
    16ee:	89 34 24             	mov    %esi,(%esp)
    16f1:	e9 51 f6 ff ff       	jmp    d47 <__v_printf+0x47>
    16f6:	89 d8                	mov    %ebx,%eax
    16f8:	03 44 24 44          	add    0x44(%esp),%eax
    16fc:	0f 82 2a f7 ff ff    	jb     e2c <.L146>
    1702:	83 ec 04             	sub    $0x4,%esp
    1705:	ff 75 00             	pushl  0x0(%ebp)
    1708:	53                   	push   %ebx
    1709:	56                   	push   %esi
    170a:	ff 55 04             	call   *0x4(%ebp)
    170d:	01 5c 24 54          	add    %ebx,0x54(%esp)
    1711:	83 c4 10             	add    $0x10,%esp
    1714:	e9 2e f6 ff ff       	jmp    d47 <__v_printf+0x47>
    1719:	8b 04 24             	mov    (%esp),%eax
    171c:	80 7c 24 10 00       	cmpb   $0x0,0x10(%esp)
    1721:	8d 50 04             	lea    0x4(%eax),%edx
    1724:	8b 00                	mov    (%eax),%eax
    1726:	89 54 24 30          	mov    %edx,0x30(%esp)
    172a:	0f 85 f5 00 00 00    	jne    1825 <.L225+0x13d>
    1730:	89 f3                	mov    %esi,%ebx
    1732:	84 db                	test   %bl,%bl
    1734:	74 0e                	je     1744 <.L225+0x5c>
    1736:	89 f3                	mov    %esi,%ebx
    1738:	80 fb ff             	cmp    $0xff,%bl
    173b:	0f 84 a5 01 00 00    	je     18e6 <.L225+0x1fe>
    1741:	0f b6 c0             	movzbl %al,%eax
    1744:	89 4c 24 34          	mov    %ecx,0x34(%esp)
    1748:	83 ec 0c             	sub    $0xc,%esp
    174b:	ff 74 24 28          	pushl  0x28(%esp)
    174f:	ff 74 24 38          	pushl  0x38(%esp)
    1753:	50                   	push   %eax
    1754:	6a 7b                	push   $0x7b
    1756:	ff 74 24 40          	pushl  0x40(%esp)
    175a:	8b 5c 24 28          	mov    0x28(%esp),%ebx
    175e:	e8 ad 10 00 00       	call   2810 <__ltostr>
    1763:	83 c4 20             	add    $0x20,%esp
    1766:	8b 4c 24 30          	mov    0x30(%esp),%ecx
    176a:	89 0c 24             	mov    %ecx,(%esp)
    176d:	8b 4c 24 34          	mov    0x34(%esp),%ecx
    1771:	e9 85 f7 ff ff       	jmp    efb <.L30+0x97>
    1776:	8d 46 ff             	lea    -0x1(%esi),%eax
    1779:	8d 59 01             	lea    0x1(%ecx),%ebx
    177c:	89 44 24 48          	mov    %eax,0x48(%esp)
    1780:	c6 46 ff 2d          	movb   $0x2d,-0x1(%esi)
    1784:	e9 d6 f7 ff ff       	jmp    f5f <.L30+0xfb>
    1789:	8b 54 24 04          	mov    0x4(%esp),%edx
    178d:	80 7c 24 2c 00       	cmpb   $0x0,0x2c(%esp)
    1792:	c6 44 24 2c 30       	movb   $0x30,0x2c(%esp)
    1797:	0f 44 d3             	cmove  %ebx,%edx
    179a:	89 54 24 04          	mov    %edx,0x4(%esp)
    179e:	e9 ea fa ff ff       	jmp    128d <.L26+0x7e>
    17a3:	8b 04 24             	mov    (%esp),%eax
    17a6:	80 7c 24 10 00       	cmpb   $0x0,0x10(%esp)
    17ab:	8d 50 04             	lea    0x4(%eax),%edx
    17ae:	8b 00                	mov    (%eax),%eax
    17b0:	89 54 24 30          	mov    %edx,0x30(%esp)
    17b4:	74 8e                	je     1744 <.L225+0x5c>
    17b6:	85 c0                	test   %eax,%eax
    17b8:	79 8a                	jns    1744 <.L225+0x5c>
    17ba:	c6 44 24 10 02       	movb   $0x2,0x10(%esp)
    17bf:	f7 d8                	neg    %eax
    17c1:	89 f3                	mov    %esi,%ebx
    17c3:	84 db                	test   %bl,%bl
    17c5:	0f 88 6b ff ff ff    	js     1736 <.L225+0x4e>
    17cb:	8b 54 24 30          	mov    0x30(%esp),%edx
    17cf:	89 14 24             	mov    %edx,(%esp)
    17d2:	80 fb 01             	cmp    $0x1,%bl
    17d5:	0f 8e 69 ff ff ff    	jle    1744 <.L225+0x5c>
    17db:	31 db                	xor    %ebx,%ebx
    17dd:	31 f6                	xor    %esi,%esi
    17df:	e9 f0 f6 ff ff       	jmp    ed4 <.L30+0x70>
    17e4:	80 7c 24 23 20       	cmpb   $0x20,0x23(%esp)
    17e9:	0f 94 44 24 1c       	sete   0x1c(%esp)
    17ee:	80 7c 24 18 00       	cmpb   $0x0,0x18(%esp)
    17f3:	0f 8f 8f f7 ff ff    	jg     f88 <.L30+0x124>
    17f9:	8b 54 24 0c          	mov    0xc(%esp),%edx
    17fd:	89 cb                	mov    %ecx,%ebx
    17ff:	c7 44 24 18 00 00 00 	movl   $0x0,0x18(%esp)
    1806:	00 
    1807:	85 d2                	test   %edx,%edx
    1809:	89 54 24 10          	mov    %edx,0x10(%esp)
    180d:	0f 94 c0             	sete   %al
    1810:	22 44 24 24          	and    0x24(%esp),%al
    1814:	88 44 24 0c          	mov    %al,0xc(%esp)
    1818:	e9 9b f7 ff ff       	jmp    fb8 <.L30+0x154>
    181d:	89 04 24             	mov    %eax,(%esp)
    1820:	e9 af f6 ff ff       	jmp    ed4 <.L30+0x70>
    1825:	85 c0                	test   %eax,%eax
    1827:	79 98                	jns    17c1 <.L225+0xd9>
    1829:	eb 8f                	jmp    17ba <.L225+0xd2>
    182b:	8b 44 24 08          	mov    0x8(%esp),%eax
    182f:	bb 06 00 00 00       	mov    $0x6,%ebx
    1834:	8d b0 c4 fe ff ff    	lea    -0x13c(%eax),%esi
    183a:	89 74 24 48          	mov    %esi,0x48(%esp)
    183e:	e9 f8 f9 ff ff       	jmp    123b <.L26+0x2c>
    1843:	83 ec 04             	sub    $0x4,%esp
    1846:	6a 0a                	push   $0xa
    1848:	ff 74 24 2c          	pushl  0x2c(%esp)
    184c:	52                   	push   %edx
    184d:	8b 5c 24 18          	mov    0x18(%esp),%ebx
    1851:	e8 8a 02 00 00       	call   1ae0 <strtol>
    1856:	83 c4 10             	add    $0x10,%esp
    1859:	ba 00 00 00 00       	mov    $0x0,%edx
    185e:	85 c0                	test   %eax,%eax
    1860:	0f 49 d0             	cmovns %eax,%edx
    1863:	89 54 24 04          	mov    %edx,0x4(%esp)
    1867:	8b 54 24 48          	mov    0x48(%esp),%edx
    186b:	e9 6f fb ff ff       	jmp    13df <.L37+0x20>
    1870:	8b 4c 24 04          	mov    0x4(%esp),%ecx
    1874:	88 44 24 24          	mov    %al,0x24(%esp)
    1878:	c6 44 24 2c 30       	movb   $0x30,0x2c(%esp)
    187d:	89 4c 24 10          	mov    %ecx,0x10(%esp)
    1881:	e9 46 fa ff ff       	jmp    12cc <.L26+0xbd>
    1886:	8b 44 24 0c          	mov    0xc(%esp),%eax
    188a:	89 cb                	mov    %ecx,%ebx
    188c:	c7 44 24 18 01 00 00 	movl   $0x1,0x18(%esp)
    1893:	00 
    1894:	83 f8 01             	cmp    $0x1,%eax
    1897:	8d 50 ff             	lea    -0x1(%eax),%edx
    189a:	0f 94 c0             	sete   %al
    189d:	22 44 24 24          	and    0x24(%esp),%al
    18a1:	89 54 24 10          	mov    %edx,0x10(%esp)
    18a5:	88 44 24 0c          	mov    %al,0xc(%esp)
    18a9:	b8 01 00 00 00       	mov    $0x1,%eax
    18ae:	e9 ff f6 ff ff       	jmp    fb2 <.L30+0x14e>
    18b3:	8d 44 24 4d          	lea    0x4d(%esp),%eax
    18b7:	c6 44 24 10 00       	movb   $0x0,0x10(%esp)
    18bc:	31 c9                	xor    %ecx,%ecx
    18be:	89 44 24 24          	mov    %eax,0x24(%esp)
    18c2:	c7 44 24 1c 00 00 00 	movl   $0x0,0x1c(%esp)
    18c9:	00 
    18ca:	c7 44 24 28 08 00 00 	movl   $0x8,0x28(%esp)
    18d1:	00 
    18d2:	e9 ba f5 ff ff       	jmp    e91 <.L30+0x2d>
    18d7:	c6 44 24 2c 30       	movb   $0x30,0x2c(%esp)
    18dc:	e9 85 f9 ff ff       	jmp    1266 <.L26+0x57>
    18e1:	e8 9a 01 00 00       	call   1a80 <__stack_chk_fail_local>
    18e6:	0f b7 c0             	movzwl %ax,%eax
    18e9:	e9 56 fe ff ff       	jmp    1744 <.L225+0x5c>
    18ee:	66 90                	xchg   %ax,%ax
    18f0:	8b 74 24 04          	mov    0x4(%esp),%esi
    18f4:	85 f6                	test   %esi,%esi
    18f6:	75 1d                	jne    1915 <.L225+0x22d>
    18f8:	80 7c 24 18 00       	cmpb   $0x0,0x18(%esp)
    18fd:	75 16                	jne    1915 <.L225+0x22d>
    18ff:	c7 44 24 04 00 00 00 	movl   $0x0,0x4(%esp)
    1906:	00 
    1907:	89 c1                	mov    %eax,%ecx
    1909:	c6 01 00             	movb   $0x0,(%ecx)
    190c:	8b 74 24 48          	mov    0x48(%esp),%esi
    1910:	e9 c5 fc ff ff       	jmp    15da <.L32+0x118>
    1915:	8b 5c 24 04          	mov    0x4(%esp),%ebx
    1919:	85 db                	test   %ebx,%ebx
    191b:	74 23                	je     1940 <.L225+0x258>
    191d:	80 78 02 00          	cmpb   $0x0,0x2(%eax)
    1921:	8d 48 02             	lea    0x2(%eax),%ecx
    1924:	74 e3                	je     1909 <.L225+0x221>
    1926:	83 6c 24 04 01       	subl   $0x1,0x4(%esp)
    192b:	74 dc                	je     1909 <.L225+0x221>
    192d:	83 c1 01             	add    $0x1,%ecx
    1930:	80 39 00             	cmpb   $0x0,(%ecx)
    1933:	75 f1                	jne    1926 <.L225+0x23e>
    1935:	eb d2                	jmp    1909 <.L225+0x221>
    1937:	8b 74 24 48          	mov    0x48(%esp),%esi
    193b:	e9 1c fd ff ff       	jmp    165c <.L32+0x19a>
    1940:	8d 48 01             	lea    0x1(%eax),%ecx
    1943:	eb c4                	jmp    1909 <.L225+0x221>
    1945:	66 90                	xchg   %ax,%ax
    1947:	66 90                	xchg   %ax,%ax
    1949:	66 90                	xchg   %ax,%ax
    194b:	66 90                	xchg   %ax,%ax
    194d:	66 90                	xchg   %ax,%ax
    194f:	90                   	nop

00001950 <atexit>:
    1950:	e8 5d 16 00 00       	call   2fb2 <__x86.get_pc_thunk.dx>
    1955:	81 c2 bf 2c 00 00    	add    $0x2cbf,%edx
    195b:	8b 82 0c 11 00 00    	mov    0x110c(%edx),%eax
    1961:	83 f8 1f             	cmp    $0x1f,%eax
    1964:	7f 1a                	jg     1980 <atexit+0x30>
    1966:	8b 4c 24 04          	mov    0x4(%esp),%ecx
    196a:	89 8c 82 2c 11 00 00 	mov    %ecx,0x112c(%edx,%eax,4)
    1971:	83 c0 01             	add    $0x1,%eax
    1974:	89 82 0c 11 00 00    	mov    %eax,0x110c(%edx)
    197a:	31 c0                	xor    %eax,%eax
    197c:	c3                   	ret    
    197d:	8d 76 00             	lea    0x0(%esi),%esi
    1980:	b8 ff ff ff ff       	mov    $0xffffffff,%eax
    1985:	c3                   	ret    
    1986:	8d b4 26 00 00 00 00 	lea    0x0(%esi,%eiz,1),%esi
    198d:	8d 76 00             	lea    0x0(%esi),%esi

00001990 <__libc_exit>:
    1990:	55                   	push   %ebp
    1991:	57                   	push   %edi
    1992:	56                   	push   %esi
    1993:	53                   	push   %ebx
    1994:	e8 0a 16 00 00       	call   2fa3 <__x86.get_pc_thunk.bx>
    1999:	81 c3 7b 2c 00 00    	add    $0x2c7b,%ebx
    199f:	83 ec 18             	sub    $0x18,%esp
    19a2:	8b 6c 24 2c          	mov    0x2c(%esp),%ebp
    19a6:	55                   	push   %ebp
    19a7:	8b b3 0c 11 00 00    	mov    0x110c(%ebx),%esi
    19ad:	e8 c3 e8 ff ff       	call   275 <__you_tried_to_link_a_dietlibc_object_against_glibc>
    19b2:	83 c4 10             	add    $0x10,%esp
    19b5:	85 f6                	test   %esi,%esi
    19b7:	74 19                	je     19d2 <__libc_exit+0x42>
    19b9:	8d bb 2c 11 00 00    	lea    0x112c(%ebx),%edi
    19bf:	8d 34 b7             	lea    (%edi,%esi,4),%esi
    19c2:	8d b6 00 00 00 00    	lea    0x0(%esi),%esi
    19c8:	ff 56 fc             	call   *-0x4(%esi)
    19cb:	83 ee 04             	sub    $0x4,%esi
    19ce:	39 fe                	cmp    %edi,%esi
    19d0:	75 f6                	jne    19c8 <__libc_exit+0x38>
    19d2:	83 ec 0c             	sub    $0xc,%esp
    19d5:	55                   	push   %ebp
    19d6:	e8 63 e8 ff ff       	call   23e <_exit>
    19db:	66 90                	xchg   %ax,%ax
    19dd:	66 90                	xchg   %ax,%ax
    19df:	90                   	nop

000019e0 <isatty>:
    19e0:	57                   	push   %edi
    19e1:	56                   	push   %esi
    19e2:	53                   	push   %ebx
    19e3:	e8 bb 15 00 00       	call   2fa3 <__x86.get_pc_thunk.bx>
    19e8:	81 c3 2c 2c 00 00    	add    $0x2c2c,%ebx
    19ee:	83 ec 30             	sub    $0x30,%esp
    19f1:	65 a1 14 00 00 00    	mov    %gs:0x14,%eax
    19f7:	89 44 24 2c          	mov    %eax,0x2c(%esp)
    19fb:	31 c0                	xor    %eax,%eax
    19fd:	e8 7e e8 ff ff       	call   280 <__errno_location>
    1a02:	83 ec 04             	sub    $0x4,%esp
    1a05:	8b 38                	mov    (%eax),%edi
    1a07:	8d 44 24 0c          	lea    0xc(%esp),%eax
    1a0b:	50                   	push   %eax
    1a0c:	68 01 54 00 00       	push   $0x5401
    1a11:	ff 74 24 4c          	pushl  0x4c(%esp)
    1a15:	e8 da 06 00 00       	call   20f4 <ioctl>
    1a1a:	89 c6                	mov    %eax,%esi
    1a1c:	e8 5f e8 ff ff       	call   280 <__errno_location>
    1a21:	83 c4 10             	add    $0x10,%esp
    1a24:	85 f6                	test   %esi,%esi
    1a26:	89 38                	mov    %edi,(%eax)
    1a28:	0f 94 c0             	sete   %al
    1a2b:	8b 54 24 2c          	mov    0x2c(%esp),%edx
    1a2f:	65 33 15 14 00 00 00 	xor    %gs:0x14,%edx
    1a36:	75 0a                	jne    1a42 <isatty+0x62>
    1a38:	83 c4 30             	add    $0x30,%esp
    1a3b:	0f b6 c0             	movzbl %al,%eax
    1a3e:	5b                   	pop    %ebx
    1a3f:	5e                   	pop    %esi
    1a40:	5f                   	pop    %edi
    1a41:	c3                   	ret    
    1a42:	e8 39 00 00 00       	call   1a80 <__stack_chk_fail_local>

00001a47 <memcpy>:
    1a47:	56                   	push   %esi
    1a48:	57                   	push   %edi
    1a49:	8b 7c 24 0c          	mov    0xc(%esp),%edi
    1a4d:	8b 74 24 10          	mov    0x10(%esp),%esi
    1a51:	8b 4c 24 14          	mov    0x14(%esp),%ecx
    1a55:	89 f8                	mov    %edi,%eax
    1a57:	fc                   	cld    
    1a58:	f3 a4                	rep movsb %ds:(%esi),%es:(%edi)
    1a5a:	5f                   	pop    %edi
    1a5b:	5e                   	pop    %esi
    1a5c:	c3                   	ret    

00001a5d <memset>:
    1a5d:	57                   	push   %edi
    1a5e:	8b 7c 24 08          	mov    0x8(%esp),%edi
    1a62:	8b 44 24 0c          	mov    0xc(%esp),%eax
    1a66:	8b 4c 24 10          	mov    0x10(%esp),%ecx
    1a6a:	fc                   	cld    
    1a6b:	57                   	push   %edi
    1a6c:	f3 aa                	rep stos %al,%es:(%edi)
    1a6e:	58                   	pop    %eax
    1a6f:	5f                   	pop    %edi
    1a70:	c3                   	ret    
    1a71:	66 90                	xchg   %ax,%ax
    1a73:	66 90                	xchg   %ax,%ax
    1a75:	66 90                	xchg   %ax,%ax
    1a77:	66 90                	xchg   %ax,%ax
    1a79:	66 90                	xchg   %ax,%ax
    1a7b:	66 90                	xchg   %ax,%ax
    1a7d:	66 90                	xchg   %ax,%ax
    1a7f:	90                   	nop

00001a80 <__stack_chk_fail_local>:
    1a80:	53                   	push   %ebx
    1a81:	e8 1d 15 00 00       	call   2fa3 <__x86.get_pc_thunk.bx>
    1a86:	81 c3 8e 2b 00 00    	add    $0x2b8e,%ebx
    1a8c:	83 ec 08             	sub    $0x8,%esp
    1a8f:	e8 cc 12 00 00       	call   2d60 <__stack_chk_fail>

00001a94 <strchr>:
    1a94:	8b 4c 24 04          	mov    0x4(%esp),%ecx
    1a98:	8a 54 24 08          	mov    0x8(%esp),%dl
    1a9c:	8a 01                	mov    (%ecx),%al
    1a9e:	38 c2                	cmp    %al,%dl
    1aa0:	74 07                	je     1aa9 <strchr+0x15>
    1aa2:	41                   	inc    %ecx
    1aa3:	84 c0                	test   %al,%al
    1aa5:	75 f5                	jne    1a9c <strchr+0x8>
    1aa7:	31 c9                	xor    %ecx,%ecx
    1aa9:	89 c8                	mov    %ecx,%eax
    1aab:	c3                   	ret    

00001aac <strcpy>:
    1aac:	56                   	push   %esi
    1aad:	57                   	push   %edi
    1aae:	8b 54 24 0c          	mov    0xc(%esp),%edx
    1ab2:	8b 74 24 10          	mov    0x10(%esp),%esi
    1ab6:	89 d7                	mov    %edx,%edi
    1ab8:	fc                   	cld    
    1ab9:	ac                   	lods   %ds:(%esi),%al
    1aba:	aa                   	stos   %al,%es:(%edi)
    1abb:	08 c0                	or     %al,%al
    1abd:	75 fa                	jne    1ab9 <strcpy+0xd>
    1abf:	5f                   	pop    %edi
    1ac0:	5e                   	pop    %esi
    1ac1:	89 d0                	mov    %edx,%eax
    1ac3:	c3                   	ret    

00001ac4 <strlen>:
    1ac4:	8b 4c 24 04          	mov    0x4(%esp),%ecx
    1ac8:	31 c0                	xor    %eax,%eax
    1aca:	e3 08                	jecxz  1ad4 <strlen+0x10>
    1acc:	48                   	dec    %eax
    1acd:	40                   	inc    %eax
    1ace:	80 3c 01 00          	cmpb   $0x0,(%ecx,%eax,1)
    1ad2:	75 f9                	jne    1acd <strlen+0x9>
    1ad4:	c3                   	ret    
    1ad5:	66 90                	xchg   %ax,%ax
    1ad7:	66 90                	xchg   %ax,%ax
    1ad9:	66 90                	xchg   %ax,%ax
    1adb:	66 90                	xchg   %ax,%ax
    1add:	66 90                	xchg   %ax,%ax
    1adf:	90                   	nop

00001ae0 <strtol>:
    1ae0:	55                   	push   %ebp
    1ae1:	57                   	push   %edi
    1ae2:	56                   	push   %esi
    1ae3:	53                   	push   %ebx
    1ae4:	e8 ba 14 00 00       	call   2fa3 <__x86.get_pc_thunk.bx>
    1ae9:	81 c3 2b 2b 00 00    	add    $0x2b2b,%ebx
    1aef:	83 ec 0c             	sub    $0xc,%esp
    1af2:	8b 7c 24 20          	mov    0x20(%esp),%edi
    1af6:	eb 0b                	jmp    1b03 <strtol+0x23>
    1af8:	8d b4 26 00 00 00 00 	lea    0x0(%esi,%eiz,1),%esi
    1aff:	90                   	nop
    1b00:	83 c7 01             	add    $0x1,%edi
    1b03:	0f b6 37             	movzbl (%edi),%esi
    1b06:	83 ec 0c             	sub    $0xc,%esp
    1b09:	89 f0                	mov    %esi,%eax
    1b0b:	0f be c0             	movsbl %al,%eax
    1b0e:	50                   	push   %eax
    1b0f:	e8 ac 11 00 00       	call   2cc0 <__isspace_ascii>
    1b14:	83 c4 10             	add    $0x10,%esp
    1b17:	89 c5                	mov    %eax,%ebp
    1b19:	85 c0                	test   %eax,%eax
    1b1b:	75 e3                	jne    1b00 <strtol+0x20>
    1b1d:	89 f0                	mov    %esi,%eax
    1b1f:	3c 2d                	cmp    $0x2d,%al
    1b21:	74 75                	je     1b98 <strtol+0xb8>
    1b23:	83 ec 04             	sub    $0x4,%esp
    1b26:	ff 74 24 2c          	pushl  0x2c(%esp)
    1b2a:	ff 74 24 2c          	pushl  0x2c(%esp)
    1b2e:	57                   	push   %edi
    1b2f:	e8 ac 00 00 00       	call   1be0 <strtoul>
    1b34:	83 c4 10             	add    $0x10,%esp
    1b37:	8b 54 24 24          	mov    0x24(%esp),%edx
    1b3b:	85 d2                	test   %edx,%edx
    1b3d:	74 08                	je     1b47 <strtol+0x67>
    1b3f:	8b 4c 24 24          	mov    0x24(%esp),%ecx
    1b43:	39 39                	cmp    %edi,(%ecx)
    1b45:	74 19                	je     1b60 <strtol+0x80>
    1b47:	85 c0                	test   %eax,%eax
    1b49:	78 1f                	js     1b6a <strtol+0x8a>
    1b4b:	89 c2                	mov    %eax,%edx
    1b4d:	f7 da                	neg    %edx
    1b4f:	85 ed                	test   %ebp,%ebp
    1b51:	0f 45 c2             	cmovne %edx,%eax
    1b54:	83 c4 0c             	add    $0xc,%esp
    1b57:	5b                   	pop    %ebx
    1b58:	5e                   	pop    %esi
    1b59:	5f                   	pop    %edi
    1b5a:	5d                   	pop    %ebp
    1b5b:	c3                   	ret    
    1b5c:	8d 74 26 00          	lea    0x0(%esi,%eiz,1),%esi
    1b60:	8b 54 24 20          	mov    0x20(%esp),%edx
    1b64:	89 11                	mov    %edx,(%ecx)
    1b66:	85 c0                	test   %eax,%eax
    1b68:	79 e1                	jns    1b4b <strtol+0x6b>
    1b6a:	3d 00 00 00 80       	cmp    $0x80000000,%eax
    1b6f:	75 04                	jne    1b75 <strtol+0x95>
    1b71:	85 ed                	test   %ebp,%ebp
    1b73:	75 4a                	jne    1bbf <strtol+0xdf>
    1b75:	e8 06 e7 ff ff       	call   280 <__errno_location>
    1b7a:	c7 00 22 00 00 00    	movl   $0x22,(%eax)
    1b80:	31 c0                	xor    %eax,%eax
    1b82:	85 ed                	test   %ebp,%ebp
    1b84:	0f 95 c0             	setne  %al
    1b87:	83 c4 0c             	add    $0xc,%esp
    1b8a:	5b                   	pop    %ebx
    1b8b:	05 ff ff ff 7f       	add    $0x7fffffff,%eax
    1b90:	5e                   	pop    %esi
    1b91:	5f                   	pop    %edi
    1b92:	5d                   	pop    %ebp
    1b93:	c3                   	ret    
    1b94:	8d 74 26 00          	lea    0x0(%esi,%eiz,1),%esi
    1b98:	0f be 47 01          	movsbl 0x1(%edi),%eax
    1b9c:	83 ec 0c             	sub    $0xc,%esp
    1b9f:	50                   	push   %eax
    1ba0:	e8 eb 10 00 00       	call   2c90 <isalnum>
    1ba5:	83 c4 10             	add    $0x10,%esp
    1ba8:	89 c5                	mov    %eax,%ebp
    1baa:	85 c0                	test   %eax,%eax
    1bac:	0f 84 71 ff ff ff    	je     1b23 <strtol+0x43>
    1bb2:	83 c7 01             	add    $0x1,%edi
    1bb5:	bd ff ff ff ff       	mov    $0xffffffff,%ebp
    1bba:	e9 64 ff ff ff       	jmp    1b23 <strtol+0x43>
    1bbf:	e8 bc e6 ff ff       	call   280 <__errno_location>
    1bc4:	c7 00 00 00 00 00    	movl   $0x0,(%eax)
    1bca:	b8 00 00 00 80       	mov    $0x80000000,%eax
    1bcf:	eb 83                	jmp    1b54 <strtol+0x74>
    1bd1:	66 90                	xchg   %ax,%ax
    1bd3:	66 90                	xchg   %ax,%ax
    1bd5:	66 90                	xchg   %ax,%ax
    1bd7:	66 90                	xchg   %ax,%ax
    1bd9:	66 90                	xchg   %ax,%ax
    1bdb:	66 90                	xchg   %ax,%ax
    1bdd:	66 90                	xchg   %ax,%ax
    1bdf:	90                   	nop

00001be0 <strtoul>:
    1be0:	55                   	push   %ebp
    1be1:	57                   	push   %edi
    1be2:	56                   	push   %esi
    1be3:	53                   	push   %ebx
    1be4:	e8 ba 13 00 00       	call   2fa3 <__x86.get_pc_thunk.bx>
    1be9:	81 c3 2b 2a 00 00    	add    $0x2a2b,%ebx
    1bef:	83 ec 1c             	sub    $0x1c,%esp
    1bf2:	8b 74 24 30          	mov    0x30(%esp),%esi
    1bf6:	eb 0b                	jmp    1c03 <strtoul+0x23>
    1bf8:	8d b4 26 00 00 00 00 	lea    0x0(%esi,%eiz,1),%esi
    1bff:	90                   	nop
    1c00:	83 c6 01             	add    $0x1,%esi
    1c03:	0f b6 2e             	movzbl (%esi),%ebp
    1c06:	83 ec 0c             	sub    $0xc,%esp
    1c09:	89 e8                	mov    %ebp,%eax
    1c0b:	0f be c0             	movsbl %al,%eax
    1c0e:	50                   	push   %eax
    1c0f:	e8 ac 10 00 00       	call   2cc0 <__isspace_ascii>
    1c14:	83 c4 10             	add    $0x10,%esp
    1c17:	85 c0                	test   %eax,%eax
    1c19:	75 e5                	jne    1c00 <strtoul+0x20>
    1c1b:	89 c7                	mov    %eax,%edi
    1c1d:	89 e8                	mov    %ebp,%eax
    1c1f:	3c 2d                	cmp    $0x2d,%al
    1c21:	0f 84 79 01 00 00    	je     1da0 <strtoul+0x1c0>
    1c27:	c7 44 24 08 00 00 00 	movl   $0x0,0x8(%esp)
    1c2e:	00 
    1c2f:	3c 2b                	cmp    $0x2b,%al
    1c31:	0f 84 e9 00 00 00    	je     1d20 <strtoul+0x140>
    1c37:	83 7c 24 38 10       	cmpl   $0x10,0x38(%esp)
    1c3c:	0f 84 f0 00 00 00    	je     1d32 <strtoul+0x152>
    1c42:	8b 6c 24 38          	mov    0x38(%esp),%ebp
    1c46:	85 ed                	test   %ebp,%ebp
    1c48:	0f 85 62 01 00 00    	jne    1db0 <strtoul+0x1d0>
    1c4e:	0f b6 16             	movzbl (%esi),%edx
    1c51:	c7 44 24 38 0a 00 00 	movl   $0xa,0x38(%esp)
    1c58:	00 
    1c59:	80 fa 30             	cmp    $0x30,%dl
    1c5c:	0f 84 8e 01 00 00    	je     1df0 <strtoul+0x210>
    1c62:	84 d2                	test   %dl,%dl
    1c64:	0f 84 6e 01 00 00    	je     1dd8 <strtoul+0x1f8>
    1c6a:	89 f1                	mov    %esi,%ecx
    1c6c:	89 74 24 0c          	mov    %esi,0xc(%esp)
    1c70:	31 c0                	xor    %eax,%eax
    1c72:	8b 74 24 38          	mov    0x38(%esp),%esi
    1c76:	eb 49                	jmp    1cc1 <strtoul+0xe1>
    1c78:	8d b4 26 00 00 00 00 	lea    0x0(%esi,%eiz,1),%esi
    1c7f:	90                   	nop
    1c80:	83 ea 57             	sub    $0x57,%edx
    1c83:	0f b6 ea             	movzbl %dl,%ebp
    1c86:	39 f5                	cmp    %esi,%ebp
    1c88:	7d 56                	jge    1ce0 <strtoul+0x100>
    1c8a:	0f b6 e8             	movzbl %al,%ebp
    1c8d:	0f b6 d2             	movzbl %dl,%edx
    1c90:	c1 e8 08             	shr    $0x8,%eax
    1c93:	0f af ee             	imul   %esi,%ebp
    1c96:	0f af c6             	imul   %esi,%eax
    1c99:	01 ea                	add    %ebp,%edx
    1c9b:	89 d5                	mov    %edx,%ebp
    1c9d:	0f b6 d2             	movzbl %dl,%edx
    1ca0:	c1 ed 08             	shr    $0x8,%ebp
    1ca3:	01 e8                	add    %ebp,%eax
    1ca5:	bd 01 00 00 00       	mov    $0x1,%ebp
    1caa:	3d 00 00 00 01       	cmp    $0x1000000,%eax
    1caf:	0f 43 fd             	cmovae %ebp,%edi
    1cb2:	c1 e0 08             	shl    $0x8,%eax
    1cb5:	83 c1 01             	add    $0x1,%ecx
    1cb8:	01 d0                	add    %edx,%eax
    1cba:	0f b6 11             	movzbl (%ecx),%edx
    1cbd:	84 d2                	test   %dl,%dl
    1cbf:	74 1f                	je     1ce0 <strtoul+0x100>
    1cc1:	80 fa 60             	cmp    $0x60,%dl
    1cc4:	77 ba                	ja     1c80 <strtoul+0xa0>
    1cc6:	80 fa 40             	cmp    $0x40,%dl
    1cc9:	0f 86 b1 00 00 00    	jbe    1d80 <strtoul+0x1a0>
    1ccf:	83 ea 37             	sub    $0x37,%edx
    1cd2:	0f b6 ea             	movzbl %dl,%ebp
    1cd5:	39 f5                	cmp    %esi,%ebp
    1cd7:	7c b1                	jl     1c8a <strtoul+0xaa>
    1cd9:	8d b4 26 00 00 00 00 	lea    0x0(%esi,%eiz,1),%esi
    1ce0:	8b 74 24 0c          	mov    0xc(%esp),%esi
    1ce4:	39 f1                	cmp    %esi,%ecx
    1ce6:	0f 84 ec 00 00 00    	je     1dd8 <strtoul+0x1f8>
    1cec:	8b 74 24 34          	mov    0x34(%esp),%esi
    1cf0:	85 f6                	test   %esi,%esi
    1cf2:	74 06                	je     1cfa <strtoul+0x11a>
    1cf4:	8b 74 24 34          	mov    0x34(%esp),%esi
    1cf8:	89 0e                	mov    %ecx,(%esi)
    1cfa:	85 ff                	test   %edi,%edi
    1cfc:	0f 85 0e 01 00 00    	jne    1e10 <strtoul+0x230>
    1d02:	8b 4c 24 08          	mov    0x8(%esp),%ecx
    1d06:	89 c2                	mov    %eax,%edx
    1d08:	f7 da                	neg    %edx
    1d0a:	85 c9                	test   %ecx,%ecx
    1d0c:	0f 45 c2             	cmovne %edx,%eax
    1d0f:	83 c4 1c             	add    $0x1c,%esp
    1d12:	5b                   	pop    %ebx
    1d13:	5e                   	pop    %esi
    1d14:	5f                   	pop    %edi
    1d15:	5d                   	pop    %ebp
    1d16:	c3                   	ret    
    1d17:	8d b4 26 00 00 00 00 	lea    0x0(%esi,%eiz,1),%esi
    1d1e:	66 90                	xchg   %ax,%ax
    1d20:	83 c6 01             	add    $0x1,%esi
    1d23:	83 7c 24 38 10       	cmpl   $0x10,0x38(%esp)
    1d28:	89 7c 24 08          	mov    %edi,0x8(%esp)
    1d2c:	0f 85 10 ff ff ff    	jne    1c42 <strtoul+0x62>
    1d32:	0f b6 16             	movzbl (%esi),%edx
    1d35:	80 fa 30             	cmp    $0x30,%dl
    1d38:	0f 85 24 ff ff ff    	jne    1c62 <strtoul+0x82>
    1d3e:	0f b6 46 01          	movzbl 0x1(%esi),%eax
    1d42:	83 e0 df             	and    $0xffffffdf,%eax
    1d45:	3c 58                	cmp    $0x58,%al
    1d47:	75 7f                	jne    1dc8 <strtoul+0x1e8>
    1d49:	0f be 46 02          	movsbl 0x2(%esi),%eax
    1d4d:	83 ec 0c             	sub    $0xc,%esp
    1d50:	88 44 24 18          	mov    %al,0x18(%esp)
    1d54:	50                   	push   %eax
    1d55:	e8 86 0f 00 00       	call   2ce0 <__isxdigit_ascii>
    1d5a:	83 c4 10             	add    $0x10,%esp
    1d5d:	0f b6 54 24 0c       	movzbl 0xc(%esp),%edx
    1d62:	85 c0                	test   %eax,%eax
    1d64:	74 62                	je     1dc8 <strtoul+0x1e8>
    1d66:	8d 4e 02             	lea    0x2(%esi),%ecx
    1d69:	84 d2                	test   %dl,%dl
    1d6b:	0f 84 c9 00 00 00    	je     1e3a <strtoul+0x25a>
    1d71:	c7 44 24 38 10 00 00 	movl   $0x10,0x38(%esp)
    1d78:	00 
    1d79:	e9 ee fe ff ff       	jmp    1c6c <strtoul+0x8c>
    1d7e:	66 90                	xchg   %ax,%ax
    1d80:	80 fa 39             	cmp    $0x39,%dl
    1d83:	77 0b                	ja     1d90 <strtoul+0x1b0>
    1d85:	83 ea 30             	sub    $0x30,%edx
    1d88:	0f b6 ea             	movzbl %dl,%ebp
    1d8b:	e9 f6 fe ff ff       	jmp    1c86 <strtoul+0xa6>
    1d90:	bd ff 00 00 00       	mov    $0xff,%ebp
    1d95:	ba ff ff ff ff       	mov    $0xffffffff,%edx
    1d9a:	e9 e7 fe ff ff       	jmp    1c86 <strtoul+0xa6>
    1d9f:	90                   	nop
    1da0:	83 c6 01             	add    $0x1,%esi
    1da3:	c7 44 24 08 01 00 00 	movl   $0x1,0x8(%esp)
    1daa:	00 
    1dab:	e9 87 fe ff ff       	jmp    1c37 <strtoul+0x57>
    1db0:	8b 44 24 38          	mov    0x38(%esp),%eax
    1db4:	83 e8 02             	sub    $0x2,%eax
    1db7:	83 f8 22             	cmp    $0x22,%eax
    1dba:	77 6c                	ja     1e28 <strtoul+0x248>
    1dbc:	0f b6 16             	movzbl (%esi),%edx
    1dbf:	e9 9e fe ff ff       	jmp    1c62 <strtoul+0x82>
    1dc4:	8d 74 26 00          	lea    0x0(%esi,%eiz,1),%esi
    1dc8:	ba 30 00 00 00       	mov    $0x30,%edx
    1dcd:	e9 98 fe ff ff       	jmp    1c6a <strtoul+0x8a>
    1dd2:	8d b6 00 00 00 00    	lea    0x0(%esi),%esi
    1dd8:	e8 a3 e4 ff ff       	call   280 <__errno_location>
    1ddd:	8b 4c 24 30          	mov    0x30(%esp),%ecx
    1de1:	c7 00 16 00 00 00    	movl   $0x16,(%eax)
    1de7:	31 c0                	xor    %eax,%eax
    1de9:	e9 fe fe ff ff       	jmp    1cec <strtoul+0x10c>
    1dee:	66 90                	xchg   %ax,%ax
    1df0:	0f b6 46 01          	movzbl 0x1(%esi),%eax
    1df4:	c7 44 24 38 08 00 00 	movl   $0x8,0x38(%esp)
    1dfb:	00 
    1dfc:	83 e0 df             	and    $0xffffffdf,%eax
    1dff:	3c 58                	cmp    $0x58,%al
    1e01:	0f 84 42 ff ff ff    	je     1d49 <strtoul+0x169>
    1e07:	eb bf                	jmp    1dc8 <strtoul+0x1e8>
    1e09:	8d b4 26 00 00 00 00 	lea    0x0(%esi,%eiz,1),%esi
    1e10:	e8 6b e4 ff ff       	call   280 <__errno_location>
    1e15:	c7 00 22 00 00 00    	movl   $0x22,(%eax)
    1e1b:	83 c4 1c             	add    $0x1c,%esp
    1e1e:	b8 ff ff ff ff       	mov    $0xffffffff,%eax
    1e23:	5b                   	pop    %ebx
    1e24:	5e                   	pop    %esi
    1e25:	5f                   	pop    %edi
    1e26:	5d                   	pop    %ebp
    1e27:	c3                   	ret    
    1e28:	e8 53 e4 ff ff       	call   280 <__errno_location>
    1e2d:	c7 00 16 00 00 00    	movl   $0x16,(%eax)
    1e33:	31 c0                	xor    %eax,%eax
    1e35:	e9 d5 fe ff ff       	jmp    1d0f <strtoul+0x12f>
    1e3a:	31 c0                	xor    %eax,%eax
    1e3c:	e9 a3 fe ff ff       	jmp    1ce4 <strtoul+0x104>
    1e41:	66 90                	xchg   %ax,%ax
    1e43:	66 90                	xchg   %ax,%ax
    1e45:	66 90                	xchg   %ax,%ax
    1e47:	66 90                	xchg   %ax,%ax
    1e49:	66 90                	xchg   %ax,%ax
    1e4b:	66 90                	xchg   %ax,%ax
    1e4d:	66 90                	xchg   %ax,%ax
    1e4f:	90                   	nop

00001e50 <__stdio_parse_mode>:
    1e50:	53                   	push   %ebx
    1e51:	31 c0                	xor    %eax,%eax
    1e53:	8b 5c 24 08          	mov    0x8(%esp),%ebx
    1e57:	eb 1c                	jmp    1e75 <__stdio_parse_mode+0x25>
    1e59:	8d b4 26 00 00 00 00 	lea    0x0(%esi,%eiz,1),%esi
    1e60:	84 d2                	test   %dl,%dl
    1e62:	74 3c                	je     1ea0 <__stdio_parse_mode+0x50>
    1e64:	89 c1                	mov    %eax,%ecx
    1e66:	83 e1 fc             	and    $0xfffffffc,%ecx
    1e69:	83 c9 02             	or     $0x2,%ecx
    1e6c:	80 fa 2b             	cmp    $0x2b,%dl
    1e6f:	0f 44 c1             	cmove  %ecx,%eax
    1e72:	83 c3 01             	add    $0x1,%ebx
    1e75:	0f b6 13             	movzbl (%ebx),%edx
    1e78:	80 fa 61             	cmp    $0x61,%dl
    1e7b:	74 1b                	je     1e98 <__stdio_parse_mode+0x48>
    1e7d:	7e e1                	jle    1e60 <__stdio_parse_mode+0x10>
    1e7f:	80 fa 77             	cmp    $0x77,%dl
    1e82:	74 24                	je     1ea8 <__stdio_parse_mode+0x58>
    1e84:	89 c1                	mov    %eax,%ecx
    1e86:	80 c9 80             	or     $0x80,%cl
    1e89:	80 fa 78             	cmp    $0x78,%dl
    1e8c:	0f 44 c1             	cmove  %ecx,%eax
    1e8f:	eb e1                	jmp    1e72 <__stdio_parse_mode+0x22>
    1e91:	8d b4 26 00 00 00 00 	lea    0x0(%esi,%eiz,1),%esi
    1e98:	0d 41 04 00 00       	or     $0x441,%eax
    1e9d:	eb d3                	jmp    1e72 <__stdio_parse_mode+0x22>
    1e9f:	90                   	nop
    1ea0:	5b                   	pop    %ebx
    1ea1:	c3                   	ret    
    1ea2:	8d b6 00 00 00 00    	lea    0x0(%esi),%esi
    1ea8:	0d 41 02 00 00       	or     $0x241,%eax
    1ead:	eb c3                	jmp    1e72 <__stdio_parse_mode+0x22>
    1eaf:	90                   	nop

00001eb0 <__stdio_init_file>:
    1eb0:	57                   	push   %edi
    1eb1:	56                   	push   %esi
    1eb2:	53                   	push   %ebx
    1eb3:	e8 eb 10 00 00       	call   2fa3 <__x86.get_pc_thunk.bx>
    1eb8:	81 c3 5c 27 00 00    	add    $0x275c,%ebx
    1ebe:	83 ec 5c             	sub    $0x5c,%esp
    1ec1:	65 a1 14 00 00 00    	mov    %gs:0x14,%eax
    1ec7:	89 44 24 58          	mov    %eax,0x58(%esp)
    1ecb:	31 c0                	xor    %eax,%eax
    1ecd:	8b 7c 24 6c          	mov    0x6c(%esp),%edi
    1ed1:	6a 34                	push   $0x34
    1ed3:	e8 98 0a 00 00       	call   2970 <__libc_malloc>
    1ed8:	83 c4 10             	add    $0x10,%esp
    1edb:	85 c0                	test   %eax,%eax
    1edd:	0f 84 f9 00 00 00    	je     1fdc <__stdio_init_file+0x12c>
    1ee3:	83 ec 0c             	sub    $0xc,%esp
    1ee6:	89 c6                	mov    %eax,%esi
    1ee8:	68 00 08 00 00       	push   $0x800
    1eed:	e8 7e 0a 00 00       	call   2970 <__libc_malloc>
    1ef2:	83 c4 10             	add    $0x10,%esp
    1ef5:	89 46 14             	mov    %eax,0x14(%esi)
    1ef8:	85 c0                	test   %eax,%eax
    1efa:	0f 84 d0 00 00 00    	je     1fd0 <__stdio_init_file+0x120>
    1f00:	83 ec 08             	sub    $0x8,%esp
    1f03:	89 3e                	mov    %edi,(%esi)
    1f05:	8d 44 24 14          	lea    0x14(%esp),%eax
    1f09:	c7 46 0c 00 00 00 00 	movl   $0x0,0xc(%esi)
    1f10:	c7 46 08 00 00 00 00 	movl   $0x0,0x8(%esi)
    1f17:	c7 46 10 00 08 00 00 	movl   $0x800,0x10(%esi)
    1f1e:	50                   	push   %eax
    1f1f:	57                   	push   %edi
    1f20:	e8 c8 01 00 00       	call   20ed <fstat>
    1f25:	0f b7 44 24 24       	movzwl 0x24(%esp),%eax
    1f2a:	83 c4 10             	add    $0x10,%esp
    1f2d:	8b 54 24 68          	mov    0x68(%esp),%edx
    1f31:	66 25 00 f0          	and    $0xf000,%ax
    1f35:	66 3d 00 10          	cmp    $0x1000,%ax
    1f39:	0f 94 c0             	sete   %al
    1f3c:	83 e2 03             	and    $0x3,%edx
    1f3f:	0f b6 c0             	movzbl %al,%eax
    1f42:	c1 e0 06             	shl    $0x6,%eax
    1f45:	89 46 04             	mov    %eax,0x4(%esi)
    1f48:	83 fa 01             	cmp    $0x1,%edx
    1f4b:	74 73                	je     1fc0 <__stdio_init_file+0x110>
    1f4d:	83 fa 02             	cmp    $0x2,%edx
    1f50:	74 3e                	je     1f90 <__stdio_init_file+0xe0>
    1f52:	85 d2                	test   %edx,%edx
    1f54:	74 3d                	je     1f93 <__stdio_init_file+0xe3>
    1f56:	8d 83 d8 00 00 00    	lea    0xd8(%ebx),%eax
    1f5c:	c7 46 1c 00 00 00 00 	movl   $0x0,0x1c(%esi)
    1f63:	8b 10                	mov    (%eax),%edx
    1f65:	85 d2                	test   %edx,%edx
    1f67:	74 37                	je     1fa0 <__stdio_init_file+0xf0>
    1f69:	8d 83 ec 11 00 00    	lea    0x11ec(%ebx),%eax
    1f6f:	c6 46 21 00          	movb   $0x0,0x21(%esi)
    1f73:	8b 10                	mov    (%eax),%edx
    1f75:	89 30                	mov    %esi,(%eax)
    1f77:	89 56 18             	mov    %edx,0x18(%esi)
    1f7a:	8b 4c 24 4c          	mov    0x4c(%esp),%ecx
    1f7e:	65 33 0d 14 00 00 00 	xor    %gs:0x14,%ecx
    1f85:	89 f0                	mov    %esi,%eax
    1f87:	75 7d                	jne    2006 <__stdio_init_file+0x156>
    1f89:	83 c4 50             	add    $0x50,%esp
    1f8c:	5b                   	pop    %ebx
    1f8d:	5e                   	pop    %esi
    1f8e:	5f                   	pop    %edi
    1f8f:	c3                   	ret    
    1f90:	80 cc 01             	or     $0x1,%ah
    1f93:	0c 84                	or     $0x84,%al
    1f95:	89 46 04             	mov    %eax,0x4(%esi)
    1f98:	eb bc                	jmp    1f56 <__stdio_init_file+0xa6>
    1f9a:	8d b6 00 00 00 00    	lea    0x0(%esi),%esi
    1fa0:	83 ec 0c             	sub    $0xc,%esp
    1fa3:	c7 00 01 00 00 00    	movl   $0x1,(%eax)
    1fa9:	ff b3 fc ff ff ff    	pushl  -0x4(%ebx)
    1faf:	e8 9c f9 ff ff       	call   1950 <atexit>
    1fb4:	83 c4 10             	add    $0x10,%esp
    1fb7:	eb b0                	jmp    1f69 <__stdio_init_file+0xb9>
    1fb9:	8d b4 26 00 00 00 00 	lea    0x0(%esi,%eiz,1),%esi
    1fc0:	80 cc 01             	or     $0x1,%ah
    1fc3:	89 46 04             	mov    %eax,0x4(%esi)
    1fc6:	eb 8e                	jmp    1f56 <__stdio_init_file+0xa6>
    1fc8:	8d b4 26 00 00 00 00 	lea    0x0(%esi,%eiz,1),%esi
    1fcf:	90                   	nop
    1fd0:	83 ec 0c             	sub    $0xc,%esp
    1fd3:	56                   	push   %esi
    1fd4:	e8 07 09 00 00       	call   28e0 <__libc_free>
    1fd9:	83 c4 10             	add    $0x10,%esp
    1fdc:	8b 4c 24 64          	mov    0x64(%esp),%ecx
    1fe0:	85 c9                	test   %ecx,%ecx
    1fe2:	75 14                	jne    1ff8 <__stdio_init_file+0x148>
    1fe4:	e8 97 e2 ff ff       	call   280 <__errno_location>
    1fe9:	31 f6                	xor    %esi,%esi
    1feb:	c7 00 0c 00 00 00    	movl   $0xc,(%eax)
    1ff1:	eb 87                	jmp    1f7a <__stdio_init_file+0xca>
    1ff3:	8d 74 26 00          	lea    0x0(%esi,%eiz,1),%esi
    1ff7:	90                   	nop
    1ff8:	83 ec 0c             	sub    $0xc,%esp
    1ffb:	57                   	push   %edi
    1ffc:	e8 e5 00 00 00       	call   20e6 <__libc_close>
    2001:	83 c4 10             	add    $0x10,%esp
    2004:	eb de                	jmp    1fe4 <__stdio_init_file+0x134>
    2006:	e8 75 fa ff ff       	call   1a80 <__stack_chk_fail_local>
    200b:	66 90                	xchg   %ax,%ax
    200d:	66 90                	xchg   %ax,%ax
    200f:	90                   	nop

00002010 <fputc_unlocked>:
    2010:	56                   	push   %esi
    2011:	53                   	push   %ebx
    2012:	e8 8c 0f 00 00       	call   2fa3 <__x86.get_pc_thunk.bx>
    2017:	81 c3 fd 25 00 00    	add    $0x25fd,%ebx
    201d:	83 ec 04             	sub    $0x4,%esp
    2020:	8b 74 24 14          	mov    0x14(%esp),%esi
    2024:	8b 46 04             	mov    0x4(%esi),%eax
    2027:	f6 c4 01             	test   $0x1,%ah
    202a:	0f 84 8c 00 00 00    	je     20bc <fputc_unlocked+0xac>
    2030:	83 ec 08             	sub    $0x8,%esp
    2033:	6a 00                	push   $0x0
    2035:	56                   	push   %esi
    2036:	e8 75 e6 ff ff       	call   6b0 <__fflush4>
    203b:	83 c4 10             	add    $0x10,%esp
    203e:	85 c0                	test   %eax,%eax
    2040:	75 77                	jne    20b9 <fputc_unlocked+0xa9>
    2042:	8b 46 10             	mov    0x10(%esi),%eax
    2045:	83 e8 01             	sub    $0x1,%eax
    2048:	39 46 0c             	cmp    %eax,0xc(%esi)
    204b:	0f 83 7f 00 00 00    	jae    20d0 <fputc_unlocked+0xc0>
    2051:	f6 46 04 10          	testb  $0x10,0x4(%esi)
    2055:	75 49                	jne    20a0 <fputc_unlocked+0x90>
    2057:	8b 46 0c             	mov    0xc(%esi),%eax
    205a:	8b 4e 14             	mov    0x14(%esi),%ecx
    205d:	8b 54 24 10          	mov    0x10(%esp),%edx
    2061:	88 14 01             	mov    %dl,(%ecx,%eax,1)
    2064:	8b 46 04             	mov    0x4(%esi),%eax
    2067:	83 46 0c 01          	addl   $0x1,0xc(%esi)
    206b:	a8 08                	test   $0x8,%al
    206d:	75 21                	jne    2090 <fputc_unlocked+0x80>
    206f:	a8 10                	test   $0x10,%al
    2071:	74 10                	je     2083 <fputc_unlocked+0x73>
    2073:	83 ec 0c             	sub    $0xc,%esp
    2076:	56                   	push   %esi
    2077:	e8 44 e5 ff ff       	call   5c0 <fflush_unlocked>
    207c:	83 c4 10             	add    $0x10,%esp
    207f:	85 c0                	test   %eax,%eax
    2081:	75 36                	jne    20b9 <fputc_unlocked+0xa9>
    2083:	0f b6 44 24 10       	movzbl 0x10(%esp),%eax
    2088:	83 c4 04             	add    $0x4,%esp
    208b:	5b                   	pop    %ebx
    208c:	5e                   	pop    %esi
    208d:	c3                   	ret    
    208e:	66 90                	xchg   %ax,%ax
    2090:	83 7c 24 10 0a       	cmpl   $0xa,0x10(%esp)
    2095:	75 d8                	jne    206f <fputc_unlocked+0x5f>
    2097:	eb da                	jmp    2073 <fputc_unlocked+0x63>
    2099:	8d b4 26 00 00 00 00 	lea    0x0(%esi,%eiz,1),%esi
    20a0:	83 ec 04             	sub    $0x4,%esp
    20a3:	6a 01                	push   $0x1
    20a5:	8d 44 24 18          	lea    0x18(%esp),%eax
    20a9:	50                   	push   %eax
    20aa:	ff 36                	pushl  (%esi)
    20ac:	e8 7d eb ff ff       	call   c2e <__libc_write>
    20b1:	83 c4 10             	add    $0x10,%esp
    20b4:	83 f8 01             	cmp    $0x1,%eax
    20b7:	74 ca                	je     2083 <fputc_unlocked+0x73>
    20b9:	8b 46 04             	mov    0x4(%esi),%eax
    20bc:	83 c8 01             	or     $0x1,%eax
    20bf:	89 46 04             	mov    %eax,0x4(%esi)
    20c2:	83 c4 04             	add    $0x4,%esp
    20c5:	b8 ff ff ff ff       	mov    $0xffffffff,%eax
    20ca:	5b                   	pop    %ebx
    20cb:	5e                   	pop    %esi
    20cc:	c3                   	ret    
    20cd:	8d 76 00             	lea    0x0(%esi),%esi
    20d0:	83 ec 0c             	sub    $0xc,%esp
    20d3:	56                   	push   %esi
    20d4:	e8 e7 e4 ff ff       	call   5c0 <fflush_unlocked>
    20d9:	83 c4 10             	add    $0x10,%esp
    20dc:	85 c0                	test   %eax,%eax
    20de:	0f 84 6d ff ff ff    	je     2051 <fputc_unlocked+0x41>
    20e4:	eb d3                	jmp    20b9 <fputc_unlocked+0xa9>

000020e6 <__libc_close>:
    20e6:	b0 06                	mov    $0x6,%al
    20e8:	e9 53 e1 ff ff       	jmp    240 <__unified_syscall>

000020ed <fstat>:
    20ed:	b0 6c                	mov    $0x6c,%al
    20ef:	e9 4c e1 ff ff       	jmp    240 <__unified_syscall>

000020f4 <ioctl>:
    20f4:	b0 36                	mov    $0x36,%al
    20f6:	e9 45 e1 ff ff       	jmp    240 <__unified_syscall>
    20fb:	66 90                	xchg   %ax,%ax
    20fd:	66 90                	xchg   %ax,%ax
    20ff:	90                   	nop

00002100 <__dtostr>:
    2100:	e8 b1 0e 00 00       	call   2fb6 <__x86.get_pc_thunk.cx>
    2105:	81 c1 0f 25 00 00    	add    $0x250f,%ecx
    210b:	55                   	push   %ebp
    210c:	57                   	push   %edi
    210d:	56                   	push   %esi
    210e:	53                   	push   %ebx
    210f:	83 ec 3c             	sub    $0x3c,%esp
    2112:	dd 44 24 50          	fldl   0x50(%esp)
    2116:	8b 5c 24 58          	mov    0x58(%esp),%ebx
    211a:	8b 54 24 5c          	mov    0x5c(%esp),%edx
    211e:	8b 7c 24 64          	mov    0x64(%esp),%edi
    2122:	dd 54 24 08          	fstl   0x8(%esp)
    2126:	dd 54 24 28          	fstl   0x28(%esp)
    212a:	dd 44 24 28          	fldl   0x28(%esp)
    212e:	d9 e5                	fxam   
    2130:	df e0                	fnstsw %ax
    2132:	dd d8                	fstp   %st(0)
    2134:	80 e4 45             	and    $0x45,%ah
    2137:	80 fc 05             	cmp    $0x5,%ah
    213a:	0f 84 40 02 00 00    	je     2380 <__dtostr+0x280>
    2140:	dd d8                	fstp   %st(0)
    2142:	dd 44 24 08          	fldl   0x8(%esp)
    2146:	0f 94 c0             	sete   %al
    2149:	0f b6 c0             	movzbl %al,%eax
    214c:	df e8                	fucomip %st(0),%st
    214e:	0f 8a 36 05 00 00    	jp     268a <__dtostr+0x58a>
    2154:	d9 ee                	fldz   
    2156:	dd 44 24 08          	fldl   0x8(%esp)
    215a:	8b 6c 24 0c          	mov    0xc(%esp),%ebp
    215e:	df e9                	fucomip %st(1),%st
    2160:	dd d8                	fstp   %st(0)
    2162:	0f 8b b8 01 00 00    	jnp    2320 <__dtostr+0x220>
    2168:	dd 44 24 08          	fldl   0x8(%esp)
    216c:	d9 ee                	fldz   
    216e:	df f1                	fcomip %st(1),%st
    2170:	0f 87 ea 03 00 00    	ja     2560 <__dtostr+0x460>
    2176:	dd d8                	fstp   %st(0)
    2178:	dd 44 24 08          	fldl   0x8(%esp)
    217c:	89 de                	mov    %ebx,%esi
    217e:	d9 81 e0 fe ff ff    	flds   -0x120(%ecx)
    2184:	85 ff                	test   %edi,%edi
    2186:	74 13                	je     219b <__dtostr+0x9b>
    2188:	dd 81 ec fe ff ff    	fldl   -0x114(%ecx)
    218e:	31 c0                	xor    %eax,%eax
    2190:	83 c0 01             	add    $0x1,%eax
    2193:	dc c9                	fmul   %st,%st(1)
    2195:	39 c7                	cmp    %eax,%edi
    2197:	75 f7                	jne    2190 <__dtostr+0x90>
    2199:	dd d8                	fstp   %st(0)
    219b:	de c1                	faddp  %st,%st(1)
    219d:	d9 e8                	fld1   
    219f:	df f1                	fcomip %st(1),%st
    21a1:	76 09                	jbe    21ac <__dtostr+0xac>
    21a3:	c6 06 30             	movb   $0x30,(%esi)
    21a6:	83 ea 01             	sub    $0x1,%edx
    21a9:	83 c6 01             	add    $0x1,%esi
    21ac:	d9 7c 24 26          	fnstcw 0x26(%esp)
    21b0:	c1 ed 14             	shr    $0x14,%ebp
    21b3:	81 e5 ff 07 00 00    	and    $0x7ff,%ebp
    21b9:	0f b7 44 24 26       	movzwl 0x26(%esp),%eax
    21be:	81 ed ff 03 00 00    	sub    $0x3ff,%ebp
    21c4:	89 6c 24 10          	mov    %ebp,0x10(%esp)
    21c8:	db 44 24 10          	fildl  0x10(%esp)
    21cc:	80 cc 0c             	or     $0xc,%ah
    21cf:	dc 89 f4 fe ff ff    	fmull  -0x10c(%ecx)
    21d5:	66 89 44 24 24       	mov    %ax,0x24(%esp)
    21da:	d9 6c 24 24          	fldcw  0x24(%esp)
    21de:	db 5c 24 20          	fistpl 0x20(%esp)
    21e2:	d9 6c 24 26          	fldcw  0x26(%esp)
    21e6:	8b 44 24 20          	mov    0x20(%esp),%eax
    21ea:	83 c0 01             	add    $0x1,%eax
    21ed:	89 44 24 1c          	mov    %eax,0x1c(%esp)
    21f1:	85 c0                	test   %eax,%eax
    21f3:	0f 8e 77 03 00 00    	jle    2570 <__dtostr+0x470>
    21f9:	d9 81 e4 fe ff ff    	flds   -0x11c(%ecx)
    21ff:	83 f8 0a             	cmp    $0xa,%eax
    2202:	0f 8e c3 04 00 00    	jle    26cb <__dtostr+0x5cb>
    2208:	d9 81 e8 fe ff ff    	flds   -0x118(%ecx)
    220e:	66 90                	xchg   %ax,%ax
    2210:	83 e8 0a             	sub    $0xa,%eax
    2213:	dc c9                	fmul   %st,%st(1)
    2215:	83 f8 0a             	cmp    $0xa,%eax
    2218:	77 f6                	ja     2210 <__dtostr+0x110>
    221a:	dd d8                	fstp   %st(0)
    221c:	83 f8 01             	cmp    $0x1,%eax
    221f:	74 1b                	je     223c <__dtostr+0x13c>
    2221:	d9 81 e4 fe ff ff    	flds   -0x11c(%ecx)
    2227:	8d b4 26 00 00 00 00 	lea    0x0(%esi,%eiz,1),%esi
    222e:	66 90                	xchg   %ax,%ax
    2230:	83 e8 01             	sub    $0x1,%eax
    2233:	dc c9                	fmul   %st,%st(1)
    2235:	83 f8 01             	cmp    $0x1,%eax
    2238:	75 f6                	jne    2230 <__dtostr+0x130>
    223a:	dd d8                	fstp   %st(0)
    223c:	dd 81 fc fe ff ff    	fldl   -0x104(%ecx)
    2242:	dd 54 24 10          	fstl   0x10(%esp)
    2246:	d9 c9                	fxch   %st(1)
    2248:	db f1                	fcomi  %st(1),%st
    224a:	dd d9                	fstp   %st(1)
    224c:	0f 86 94 00 00 00    	jbe    22e6 <__dtostr+0x1e6>
    2252:	bd 01 00 00 00       	mov    $0x1,%ebp
    2257:	dd 81 fc fe ff ff    	fldl   -0x104(%ecx)
    225d:	89 5c 24 58          	mov    %ebx,0x58(%esp)
    2261:	eb 1f                	jmp    2282 <__dtostr+0x182>
    2263:	8d 74 26 00          	lea    0x0(%esi,%eiz,1),%esi
    2267:	90                   	nop
    2268:	d9 c9                	fxch   %st(1)
    226a:	d8 b1 e4 fe ff ff    	fdivs  -0x11c(%ecx)
    2270:	db f1                	fcomi  %st(1),%st
    2272:	76 6c                	jbe    22e0 <__dtostr+0x1e0>
    2274:	d9 c9                	fxch   %st(1)
    2276:	eb 0a                	jmp    2282 <__dtostr+0x182>
    2278:	8d b4 26 00 00 00 00 	lea    0x0(%esi,%eiz,1),%esi
    227f:	90                   	nop
    2280:	d9 c9                	fxch   %st(1)
    2282:	d9 c2                	fld    %st(2)
    2284:	d8 f2                	fdiv   %st(2),%st
    2286:	d9 6c 24 24          	fldcw  0x24(%esp)
    228a:	db 5c 24 20          	fistpl 0x20(%esp)
    228e:	d9 6c 24 26          	fldcw  0x26(%esp)
    2292:	8b 44 24 20          	mov    0x20(%esp),%eax
    2296:	85 ed                	test   %ebp,%ebp
    2298:	74 09                	je     22a3 <__dtostr+0x1a3>
    229a:	bd 01 00 00 00       	mov    $0x1,%ebp
    229f:	84 c0                	test   %al,%al
    22a1:	74 c5                	je     2268 <__dtostr+0x168>
    22a3:	8d 68 30             	lea    0x30(%eax),%ebp
    22a6:	83 c6 01             	add    $0x1,%esi
    22a9:	89 eb                	mov    %ebp,%ebx
    22ab:	88 5e ff             	mov    %bl,-0x1(%esi)
    22ae:	85 d2                	test   %edx,%edx
    22b0:	0f 84 c2 01 00 00    	je     2478 <__dtostr+0x378>
    22b6:	66 98                	cbtw   
    22b8:	83 ea 01             	sub    $0x1,%edx
    22bb:	31 ed                	xor    %ebp,%ebp
    22bd:	66 89 44 24 10       	mov    %ax,0x10(%esp)
    22c2:	df 44 24 10          	filds  0x10(%esp)
    22c6:	d8 ca                	fmul   %st(2),%st
    22c8:	de eb                	fsubrp %st,%st(3)
    22ca:	d9 c9                	fxch   %st(1)
    22cc:	d8 b1 e4 fe ff ff    	fdivs  -0x11c(%ecx)
    22d2:	db f1                	fcomi  %st(1),%st
    22d4:	77 aa                	ja     2280 <__dtostr+0x180>
    22d6:	dd d9                	fstp   %st(1)
    22d8:	eb 08                	jmp    22e2 <__dtostr+0x1e2>
    22da:	8d b6 00 00 00 00    	lea    0x0(%esi),%esi
    22e0:	dd d9                	fstp   %st(1)
    22e2:	8b 5c 24 58          	mov    0x58(%esp),%ebx
    22e6:	39 de                	cmp    %ebx,%esi
    22e8:	0f 84 90 02 00 00    	je     257e <__dtostr+0x47e>
    22ee:	85 ff                	test   %edi,%edi
    22f0:	0f 85 ea 00 00 00    	jne    23e0 <__dtostr+0x2e0>
    22f6:	89 f0                	mov    %esi,%eax
    22f8:	29 d8                	sub    %ebx,%eax
    22fa:	8d 68 01             	lea    0x1(%eax),%ebp
    22fd:	3b 6c 24 60          	cmp    0x60(%esp),%ebp
    2301:	0f 82 d9 00 00 00    	jb     23e0 <__dtostr+0x2e0>
    2307:	dd d8                	fstp   %st(0)
    2309:	dd d8                	fstp   %st(0)
    230b:	c6 06 00             	movb   $0x0,(%esi)
    230e:	83 c4 3c             	add    $0x3c,%esp
    2311:	5b                   	pop    %ebx
    2312:	5e                   	pop    %esi
    2313:	5f                   	pop    %edi
    2314:	5d                   	pop    %ebp
    2315:	c3                   	ret    
    2316:	8d b4 26 00 00 00 00 	lea    0x0(%esi,%eiz,1),%esi
    231d:	8d 76 00             	lea    0x0(%esi),%esi
    2320:	0f 85 42 fe ff ff    	jne    2168 <__dtostr+0x68>
    2326:	85 ff                	test   %edi,%edi
    2328:	0f 84 12 02 00 00    	je     2540 <__dtostr+0x440>
    232e:	83 c7 02             	add    $0x2,%edi
    2331:	39 fa                	cmp    %edi,%edx
    2333:	0f 83 f7 02 00 00    	jae    2630 <__dtostr+0x530>
    2339:	bf 08 00 00 00       	mov    $0x8,%edi
    233e:	31 d2                	xor    %edx,%edx
    2340:	85 ed                	test   %ebp,%ebp
    2342:	0f 88 d5 02 00 00    	js     261d <__dtostr+0x51d>
    2348:	8d b4 26 00 00 00 00 	lea    0x0(%esi,%eiz,1),%esi
    234f:	90                   	nop
    2350:	c6 04 13 30          	movb   $0x30,(%ebx,%edx,1)
    2354:	83 c2 01             	add    $0x1,%edx
    2357:	39 fa                	cmp    %edi,%edx
    2359:	72 f5                	jb     2350 <__dtostr+0x250>
    235b:	8d 0c 13             	lea    (%ebx,%edx,1),%ecx
    235e:	89 d0                	mov    %edx,%eax
    2360:	31 d2                	xor    %edx,%edx
    2362:	80 3b 30             	cmpb   $0x30,(%ebx)
    2365:	0f 95 c2             	setne  %dl
    2368:	8d 54 1a 01          	lea    0x1(%edx,%ebx,1),%edx
    236c:	c6 02 2e             	movb   $0x2e,(%edx)
    236f:	c6 01 00             	movb   $0x0,(%ecx)
    2372:	83 c4 3c             	add    $0x3c,%esp
    2375:	5b                   	pop    %ebx
    2376:	5e                   	pop    %esi
    2377:	5f                   	pop    %edi
    2378:	5d                   	pop    %ebp
    2379:	c3                   	ret    
    237a:	8d b6 00 00 00 00    	lea    0x0(%esi),%esi
    2380:	8b 44 24 68          	mov    0x68(%esp),%eax
    2384:	d9 ee                	fldz   
    2386:	83 e0 02             	and    $0x2,%eax
    2389:	df f1                	fcomip %st(1),%st
    238b:	dd d8                	fstp   %st(0)
    238d:	0f 87 0d 02 00 00    	ja     25a0 <__dtostr+0x4a0>
    2393:	85 c0                	test   %eax,%eax
    2395:	8d b9 cc fe ff ff    	lea    -0x134(%ecx),%edi
    239b:	8d 81 d1 fe ff ff    	lea    -0x12f(%ecx),%eax
    23a1:	0f 44 f8             	cmove  %eax,%edi
    23a4:	89 d0                	mov    %edx,%eax
    23a6:	85 d2                	test   %edx,%edx
    23a8:	0f 8e 82 01 00 00    	jle    2530 <__dtostr+0x430>
    23ae:	0f b6 0f             	movzbl (%edi),%ecx
    23b1:	89 d6                	mov    %edx,%esi
    23b3:	88 0b                	mov    %cl,(%ebx)
    23b5:	31 c9                	xor    %ecx,%ecx
    23b7:	eb 16                	jmp    23cf <__dtostr+0x2cf>
    23b9:	8d b4 26 00 00 00 00 	lea    0x0(%esi,%eiz,1),%esi
    23c0:	0f b6 14 0f          	movzbl (%edi,%ecx,1),%edx
    23c4:	88 14 0b             	mov    %dl,(%ebx,%ecx,1)
    23c7:	84 d2                	test   %dl,%dl
    23c9:	0f 84 c1 01 00 00    	je     2590 <__dtostr+0x490>
    23cf:	83 c1 01             	add    $0x1,%ecx
    23d2:	39 f1                	cmp    %esi,%ecx
    23d4:	75 ea                	jne    23c0 <__dtostr+0x2c0>
    23d6:	e9 33 ff ff ff       	jmp    230e <__dtostr+0x20e>
    23db:	8d 74 26 00          	lea    0x0(%esi,%eiz,1),%esi
    23df:	90                   	nop
    23e0:	85 d2                	test   %edx,%edx
    23e2:	0f 84 28 01 00 00    	je     2510 <__dtostr+0x410>
    23e8:	8d 6e 01             	lea    0x1(%esi),%ebp
    23eb:	83 ea 01             	sub    $0x1,%edx
    23ee:	c6 06 2e             	movb   $0x2e,(%esi)
    23f1:	89 e8                	mov    %ebp,%eax
    23f3:	29 d8                	sub    %ebx,%eax
    23f5:	f6 44 24 68 01       	testb  $0x1,0x68(%esp)
    23fa:	0f 84 f0 01 00 00    	je     25f0 <__dtostr+0x4f0>
    2400:	85 ff                	test   %edi,%edi
    2402:	0f 44 7c 24 60       	cmove  0x60(%esp),%edi
    2407:	89 7c 24 60          	mov    %edi,0x60(%esp)
    240b:	29 c7                	sub    %eax,%edi
    240d:	83 c7 01             	add    $0x1,%edi
    2410:	39 d7                	cmp    %edx,%edi
    2412:	0f 87 08 01 00 00    	ja     2520 <__dtostr+0x420>
    2418:	85 ff                	test   %edi,%edi
    241a:	0f 84 bb 02 00 00    	je     26db <__dtostr+0x5db>
    2420:	d9 81 e4 fe ff ff    	flds   -0x11c(%ecx)
    2426:	8d 74 3e 01          	lea    0x1(%esi,%edi,1),%esi
    242a:	89 ea                	mov    %ebp,%edx
    242c:	8d 74 26 00          	lea    0x0(%esi,%eiz,1),%esi
    2430:	d9 c2                	fld    %st(2)
    2432:	83 c2 01             	add    $0x1,%edx
    2435:	d8 f2                	fdiv   %st(2),%st
    2437:	d9 6c 24 24          	fldcw  0x24(%esp)
    243b:	db 5c 24 20          	fistpl 0x20(%esp)
    243f:	d9 6c 24 26          	fldcw  0x26(%esp)
    2443:	8b 44 24 20          	mov    0x20(%esp),%eax
    2447:	8d 48 30             	lea    0x30(%eax),%ecx
    244a:	66 98                	cbtw   
    244c:	66 89 44 24 08       	mov    %ax,0x8(%esp)
    2451:	df 44 24 08          	filds  0x8(%esp)
    2455:	88 4a ff             	mov    %cl,-0x1(%edx)
    2458:	d8 ca                	fmul   %st(2),%st
    245a:	de eb                	fsubrp %st,%st(3)
    245c:	dc f9                	fdivr  %st,%st(1)
    245e:	39 f2                	cmp    %esi,%edx
    2460:	75 ce                	jne    2430 <__dtostr+0x330>
    2462:	dd d8                	fstp   %st(0)
    2464:	dd d8                	fstp   %st(0)
    2466:	dd d8                	fstp   %st(0)
    2468:	8d 74 3d 00          	lea    0x0(%ebp,%edi,1),%esi
    246c:	89 f0                	mov    %esi,%eax
    246e:	29 d8                	sub    %ebx,%eax
    2470:	e9 96 fe ff ff       	jmp    230b <__dtostr+0x20b>
    2475:	8d 76 00             	lea    0x0(%esi),%esi
    2478:	dd d8                	fstp   %st(0)
    247a:	dd d9                	fstp   %st(1)
    247c:	8b 5c 24 58          	mov    0x58(%esp),%ebx
    2480:	83 ec 04             	sub    $0x4,%esp
    2483:	6a 00                	push   $0x0
    2485:	57                   	push   %edi
    2486:	ff 74 24 6c          	pushl  0x6c(%esp)
    248a:	6a 00                	push   $0x0
    248c:	53                   	push   %ebx
    248d:	dc 7c 24 20          	fdivrl 0x20(%esp)
    2491:	83 ec 08             	sub    $0x8,%esp
    2494:	dd 1c 24             	fstpl  (%esp)
    2497:	e8 64 fc ff ff       	call   2100 <__dtostr>
    249c:	83 c4 20             	add    $0x20,%esp
    249f:	85 c0                	test   %eax,%eax
    24a1:	0f 84 89 00 00 00    	je     2530 <__dtostr+0x430>
    24a7:	01 c6                	add    %eax,%esi
    24a9:	f7 d0                	not    %eax
    24ab:	89 5c 24 58          	mov    %ebx,0x58(%esp)
    24af:	8b 5c 24 1c          	mov    0x1c(%esp),%ebx
    24b3:	c6 06 65             	movb   $0x65,(%esi)
    24b6:	bd 04 00 00 00       	mov    $0x4,%ebp
    24bb:	83 c6 01             	add    $0x1,%esi
    24be:	bf 01 00 00 00       	mov    $0x1,%edi
    24c3:	89 44 24 08          	mov    %eax,0x8(%esp)
    24c7:	b9 e8 03 00 00       	mov    $0x3e8,%ecx
    24cc:	39 cb                	cmp    %ecx,%ebx
    24ce:	0f 8d ec 00 00 00    	jge    25c0 <__dtostr+0x4c0>
    24d4:	89 f8                	mov    %edi,%eax
    24d6:	bf 01 00 00 00       	mov    $0x1,%edi
    24db:	83 f0 01             	xor    $0x1,%eax
    24de:	84 c0                	test   %al,%al
    24e0:	0f 85 da 00 00 00    	jne    25c0 <__dtostr+0x4c0>
    24e6:	89 c8                	mov    %ecx,%eax
    24e8:	ba 67 66 66 66       	mov    $0x66666667,%edx
    24ed:	c1 f9 1f             	sar    $0x1f,%ecx
    24f0:	f7 ea                	imul   %edx
    24f2:	c1 fa 02             	sar    $0x2,%edx
    24f5:	29 ca                	sub    %ecx,%edx
    24f7:	89 d1                	mov    %edx,%ecx
    24f9:	83 ed 01             	sub    $0x1,%ebp
    24fc:	75 ce                	jne    24cc <__dtostr+0x3cc>
    24fe:	8b 44 24 08          	mov    0x8(%esp),%eax
    2502:	8b 5c 24 58          	mov    0x58(%esp),%ebx
    2506:	85 c0                	test   %eax,%eax
    2508:	0f 85 60 01 00 00    	jne    266e <__dtostr+0x56e>
    250e:	eb 20                	jmp    2530 <__dtostr+0x430>
    2510:	dd d8                	fstp   %st(0)
    2512:	dd d8                	fstp   %st(0)
    2514:	eb 1a                	jmp    2530 <__dtostr+0x430>
    2516:	8d b4 26 00 00 00 00 	lea    0x0(%esi,%eiz,1),%esi
    251d:	8d 76 00             	lea    0x0(%esi),%esi
    2520:	dd d8                	fstp   %st(0)
    2522:	dd d8                	fstp   %st(0)
    2524:	eb 0a                	jmp    2530 <__dtostr+0x430>
    2526:	dd d8                	fstp   %st(0)
    2528:	dd d8                	fstp   %st(0)
    252a:	8d b6 00 00 00 00    	lea    0x0(%esi),%esi
    2530:	31 c0                	xor    %eax,%eax
    2532:	83 c4 3c             	add    $0x3c,%esp
    2535:	5b                   	pop    %ebx
    2536:	5e                   	pop    %esi
    2537:	5f                   	pop    %edi
    2538:	5d                   	pop    %ebp
    2539:	c3                   	ret    
    253a:	8d b6 00 00 00 00    	lea    0x0(%esi),%esi
    2540:	85 d2                	test   %edx,%edx
    2542:	0f 84 c8 00 00 00    	je     2610 <__dtostr+0x510>
    2548:	85 ed                	test   %ebp,%ebp
    254a:	0f 88 27 01 00 00    	js     2677 <__dtostr+0x577>
    2550:	c6 03 30             	movb   $0x30,(%ebx)
    2553:	ba 01 00 00 00       	mov    $0x1,%edx
    2558:	e9 fe fd ff ff       	jmp    235b <__dtostr+0x25b>
    255d:	8d 76 00             	lea    0x0(%esi),%esi
    2560:	c6 03 2d             	movb   $0x2d,(%ebx)
    2563:	83 ea 01             	sub    $0x1,%edx
    2566:	8d 73 01             	lea    0x1(%ebx),%esi
    2569:	d9 e0                	fchs   
    256b:	e9 0e fc ff ff       	jmp    217e <__dtostr+0x7e>
    2570:	dd 81 ec fe ff ff    	fldl   -0x114(%ecx)
    2576:	39 de                	cmp    %ebx,%esi
    2578:	0f 85 70 fd ff ff    	jne    22ee <__dtostr+0x1ee>
    257e:	85 d2                	test   %edx,%edx
    2580:	74 a4                	je     2526 <__dtostr+0x426>
    2582:	c6 06 30             	movb   $0x30,(%esi)
    2585:	83 ea 01             	sub    $0x1,%edx
    2588:	83 c6 01             	add    $0x1,%esi
    258b:	e9 5e fd ff ff       	jmp    22ee <__dtostr+0x1ee>
    2590:	83 c4 3c             	add    $0x3c,%esp
    2593:	89 c8                	mov    %ecx,%eax
    2595:	5b                   	pop    %ebx
    2596:	5e                   	pop    %esi
    2597:	5f                   	pop    %edi
    2598:	5d                   	pop    %ebp
    2599:	c3                   	ret    
    259a:	8d b6 00 00 00 00    	lea    0x0(%esi),%esi
    25a0:	85 c0                	test   %eax,%eax
    25a2:	8d b9 cb fe ff ff    	lea    -0x135(%ecx),%edi
    25a8:	8d 81 d0 fe ff ff    	lea    -0x130(%ecx),%eax
    25ae:	0f 44 f8             	cmove  %eax,%edi
    25b1:	e9 ee fd ff ff       	jmp    23a4 <__dtostr+0x2a4>
    25b6:	8d b4 26 00 00 00 00 	lea    0x0(%esi,%eiz,1),%esi
    25bd:	8d 76 00             	lea    0x0(%esi),%esi
    25c0:	8b 54 24 08          	mov    0x8(%esp),%edx
    25c4:	85 d2                	test   %edx,%edx
    25c6:	74 0e                	je     25d6 <__dtostr+0x4d6>
    25c8:	89 d8                	mov    %ebx,%eax
    25ca:	83 c6 01             	add    $0x1,%esi
    25cd:	99                   	cltd   
    25ce:	f7 f9                	idiv   %ecx
    25d0:	83 c0 30             	add    $0x30,%eax
    25d3:	88 46 ff             	mov    %al,-0x1(%esi)
    25d6:	89 d8                	mov    %ebx,%eax
    25d8:	83 6c 24 08 01       	subl   $0x1,0x8(%esp)
    25dd:	31 ff                	xor    %edi,%edi
    25df:	99                   	cltd   
    25e0:	f7 f9                	idiv   %ecx
    25e2:	89 d3                	mov    %edx,%ebx
    25e4:	e9 fd fe ff ff       	jmp    24e6 <__dtostr+0x3e6>
    25e9:	8d b4 26 00 00 00 00 	lea    0x0(%esi,%eiz,1),%esi
    25f0:	85 ff                	test   %edi,%edi
    25f2:	74 6c                	je     2660 <__dtostr+0x560>
    25f4:	39 d7                	cmp    %edx,%edi
    25f6:	0f 86 24 fe ff ff    	jbe    2420 <__dtostr+0x320>
    25fc:	dd d8                	fstp   %st(0)
    25fe:	dd d8                	fstp   %st(0)
    2600:	31 c0                	xor    %eax,%eax
    2602:	e9 2b ff ff ff       	jmp    2532 <__dtostr+0x432>
    2607:	8d b4 26 00 00 00 00 	lea    0x0(%esi,%eiz,1),%esi
    260e:	66 90                	xchg   %ax,%ax
    2610:	bf 08 00 00 00       	mov    $0x8,%edi
    2615:	85 ed                	test   %ebp,%ebp
    2617:	0f 89 33 fd ff ff    	jns    2350 <__dtostr+0x250>
    261d:	c6 03 2d             	movb   $0x2d,(%ebx)
    2620:	ba 01 00 00 00       	mov    $0x1,%edx
    2625:	e9 26 fd ff ff       	jmp    2350 <__dtostr+0x250>
    262a:	8d b6 00 00 00 00    	lea    0x0(%esi),%esi
    2630:	89 d9                	mov    %ebx,%ecx
    2632:	85 ff                	test   %edi,%edi
    2634:	0f 84 26 fd ff ff    	je     2360 <__dtostr+0x260>
    263a:	31 d2                	xor    %edx,%edx
    263c:	85 ed                	test   %ebp,%ebp
    263e:	0f 89 0c fd ff ff    	jns    2350 <__dtostr+0x250>
    2644:	c6 03 2d             	movb   $0x2d,(%ebx)
    2647:	83 ff 01             	cmp    $0x1,%edi
    264a:	76 2e                	jbe    267a <__dtostr+0x57a>
    264c:	ba 01 00 00 00       	mov    $0x1,%edx
    2651:	e9 fa fc ff ff       	jmp    2350 <__dtostr+0x250>
    2656:	8d b4 26 00 00 00 00 	lea    0x0(%esi,%eiz,1),%esi
    265d:	8d 76 00             	lea    0x0(%esi),%esi
    2660:	8b 7c 24 60          	mov    0x60(%esp),%edi
    2664:	83 c7 01             	add    $0x1,%edi
    2667:	29 c7                	sub    %eax,%edi
    2669:	e9 a2 fd ff ff       	jmp    2410 <__dtostr+0x310>
    266e:	89 f0                	mov    %esi,%eax
    2670:	29 d8                	sub    %ebx,%eax
    2672:	e9 94 fc ff ff       	jmp    230b <__dtostr+0x20b>
    2677:	c6 03 2d             	movb   $0x2d,(%ebx)
    267a:	8d 4b 01             	lea    0x1(%ebx),%ecx
    267d:	8d 53 02             	lea    0x2(%ebx),%edx
    2680:	b8 01 00 00 00       	mov    $0x1,%eax
    2685:	e9 e2 fc ff ff       	jmp    236c <__dtostr+0x26c>
    268a:	8d b1 d5 fe ff ff    	lea    -0x12b(%ecx),%esi
    2690:	f6 44 24 68 02       	testb  $0x2,0x68(%esp)
    2695:	8d 89 d9 fe ff ff    	lea    -0x127(%ecx),%ecx
    269b:	0f 44 f1             	cmove  %ecx,%esi
    269e:	85 d2                	test   %edx,%edx
    26a0:	0f 8e 8a fe ff ff    	jle    2530 <__dtostr+0x430>
    26a6:	0f b6 0e             	movzbl (%esi),%ecx
    26a9:	88 0b                	mov    %cl,(%ebx)
    26ab:	eb 12                	jmp    26bf <__dtostr+0x5bf>
    26ad:	8d 76 00             	lea    0x0(%esi),%esi
    26b0:	0f b6 0c 06          	movzbl (%esi,%eax,1),%ecx
    26b4:	88 0c 03             	mov    %cl,(%ebx,%eax,1)
    26b7:	84 c9                	test   %cl,%cl
    26b9:	0f 84 4f fc ff ff    	je     230e <__dtostr+0x20e>
    26bf:	83 c0 01             	add    $0x1,%eax
    26c2:	39 c2                	cmp    %eax,%edx
    26c4:	75 ea                	jne    26b0 <__dtostr+0x5b0>
    26c6:	e9 43 fc ff ff       	jmp    230e <__dtostr+0x20e>
    26cb:	83 7c 24 1c 01       	cmpl   $0x1,0x1c(%esp)
    26d0:	0f 85 4b fb ff ff    	jne    2221 <__dtostr+0x121>
    26d6:	e9 77 fb ff ff       	jmp    2252 <__dtostr+0x152>
    26db:	dd d8                	fstp   %st(0)
    26dd:	dd d8                	fstp   %st(0)
    26df:	89 ee                	mov    %ebp,%esi
    26e1:	e9 25 fc ff ff       	jmp    230b <__dtostr+0x20b>
    26e6:	66 90                	xchg   %ax,%ax
    26e8:	66 90                	xchg   %ax,%ax
    26ea:	66 90                	xchg   %ax,%ax
    26ec:	66 90                	xchg   %ax,%ax
    26ee:	66 90                	xchg   %ax,%ax

000026f0 <__lltostr>:
    26f0:	e8 aa 08 00 00       	call   2f9f <__x86.get_pc_thunk.ax>
    26f5:	05 1f 1f 00 00       	add    $0x1f1f,%eax
    26fa:	55                   	push   %ebp
    26fb:	57                   	push   %edi
    26fc:	56                   	push   %esi
    26fd:	53                   	push   %ebx
    26fe:	83 ec 2c             	sub    $0x2c,%esp
    2701:	8b 6c 24 4c          	mov    0x4c(%esp),%ebp
    2705:	8b 7c 24 48          	mov    0x48(%esp),%edi
    2709:	89 44 24 08          	mov    %eax,0x8(%esp)
    270d:	8b 44 24 50          	mov    0x50(%esp),%eax
    2711:	8b 54 24 44          	mov    0x44(%esp),%edx
    2715:	8b 74 24 40          	mov    0x40(%esp),%esi
    2719:	89 e9                	mov    %ebp,%ecx
    271b:	83 e8 01             	sub    $0x1,%eax
    271e:	83 f8 23             	cmp    $0x23,%eax
    2721:	8d 74 16 ff          	lea    -0x1(%esi,%edx,1),%esi
    2725:	b8 0a 00 00 00       	mov    $0xa,%eax
    272a:	0f 46 44 24 50       	cmovbe 0x50(%esp),%eax
    272f:	09 f9                	or     %edi,%ecx
    2731:	89 74 24 0c          	mov    %esi,0xc(%esp)
    2735:	c6 06 00             	movb   $0x0,(%esi)
    2738:	0f 84 b2 00 00 00    	je     27f0 <__lltostr+0x100>
    273e:	3b 74 24 40          	cmp    0x40(%esp),%esi
    2742:	0f 86 bf 00 00 00    	jbe    2807 <__lltostr+0x117>
    2748:	83 7c 24 54 01       	cmpl   $0x1,0x54(%esp)
    274d:	8b 74 24 0c          	mov    0xc(%esp),%esi
    2751:	89 04 24             	mov    %eax,(%esp)
    2754:	8d 44 24 18          	lea    0x18(%esp),%eax
    2758:	19 d2                	sbb    %edx,%edx
    275a:	c7 44 24 04 00 00 00 	movl   $0x0,0x4(%esp)
    2761:	00 
    2762:	83 e2 20             	and    $0x20,%edx
    2765:	89 44 24 14          	mov    %eax,0x14(%esp)
    2769:	83 c2 07             	add    $0x7,%edx
    276c:	88 54 24 13          	mov    %dl,0x13(%esp)
    2770:	83 ec 0c             	sub    $0xc,%esp
    2773:	83 ee 01             	sub    $0x1,%esi
    2776:	ff 74 24 20          	pushl  0x20(%esp)
    277a:	ff 74 24 14          	pushl  0x14(%esp)
    277e:	ff 74 24 14          	pushl  0x14(%esp)
    2782:	55                   	push   %ebp
    2783:	57                   	push   %edi
    2784:	8b 5c 24 28          	mov    0x28(%esp),%ebx
    2788:	e8 53 06 00 00       	call   2de0 <__udivmoddi4>
    278d:	83 c4 20             	add    $0x20,%esp
    2790:	0f b6 5c 24 18       	movzbl 0x18(%esp),%ebx
    2795:	8d 4b 30             	lea    0x30(%ebx),%ecx
    2798:	0f b6 5c 24 13       	movzbl 0x13(%esp),%ebx
    279d:	01 cb                	add    %ecx,%ebx
    279f:	80 f9 3a             	cmp    $0x3a,%cl
    27a2:	0f 43 cb             	cmovae %ebx,%ecx
    27a5:	88 0e                	mov    %cl,(%esi)
    27a7:	8b 4c 24 0c          	mov    0xc(%esp),%ecx
    27ab:	29 f1                	sub    %esi,%ecx
    27ad:	39 74 24 40          	cmp    %esi,0x40(%esp)
    27b1:	73 0b                	jae    27be <__lltostr+0xce>
    27b3:	3b 3c 24             	cmp    (%esp),%edi
    27b6:	89 ef                	mov    %ebp,%edi
    27b8:	1b 7c 24 04          	sbb    0x4(%esp),%edi
    27bc:	73 22                	jae    27e0 <__lltostr+0xf0>
    27be:	8d 41 01             	lea    0x1(%ecx),%eax
    27c1:	89 cf                	mov    %ecx,%edi
    27c3:	83 ec 04             	sub    $0x4,%esp
    27c6:	50                   	push   %eax
    27c7:	56                   	push   %esi
    27c8:	ff 74 24 4c          	pushl  0x4c(%esp)
    27cc:	8b 5c 24 18          	mov    0x18(%esp),%ebx
    27d0:	e8 2b 05 00 00       	call   2d00 <memmove>
    27d5:	83 c4 3c             	add    $0x3c,%esp
    27d8:	89 f8                	mov    %edi,%eax
    27da:	5b                   	pop    %ebx
    27db:	5e                   	pop    %esi
    27dc:	5f                   	pop    %edi
    27dd:	5d                   	pop    %ebp
    27de:	c3                   	ret    
    27df:	90                   	nop
    27e0:	89 c7                	mov    %eax,%edi
    27e2:	89 d5                	mov    %edx,%ebp
    27e4:	eb 8a                	jmp    2770 <__lltostr+0x80>
    27e6:	8d b4 26 00 00 00 00 	lea    0x0(%esi,%eiz,1),%esi
    27ed:	8d 76 00             	lea    0x0(%esi),%esi
    27f0:	8b 44 24 0c          	mov    0xc(%esp),%eax
    27f4:	bf 01 00 00 00       	mov    $0x1,%edi
    27f9:	8d 70 ff             	lea    -0x1(%eax),%esi
    27fc:	c6 40 ff 30          	movb   $0x30,-0x1(%eax)
    2800:	b8 02 00 00 00       	mov    $0x2,%eax
    2805:	eb bc                	jmp    27c3 <__lltostr+0xd3>
    2807:	31 ff                	xor    %edi,%edi
    2809:	b8 01 00 00 00       	mov    $0x1,%eax
    280e:	eb b3                	jmp    27c3 <__lltostr+0xd3>

00002810 <__ltostr>:
    2810:	e8 8a 07 00 00       	call   2f9f <__x86.get_pc_thunk.ax>
    2815:	05 ff 1d 00 00       	add    $0x1dff,%eax
    281a:	55                   	push   %ebp
    281b:	57                   	push   %edi
    281c:	56                   	push   %esi
    281d:	53                   	push   %ebx
    281e:	83 ec 1c             	sub    $0x1c,%esp
    2821:	8b 74 24 3c          	mov    0x3c(%esp),%esi
    2825:	8b 7c 24 30          	mov    0x30(%esp),%edi
    2829:	89 44 24 0c          	mov    %eax,0xc(%esp)
    282d:	8b 44 24 34          	mov    0x34(%esp),%eax
    2831:	8b 5c 24 38          	mov    0x38(%esp),%ebx
    2835:	83 ee 01             	sub    $0x1,%esi
    2838:	8d 7c 07 ff          	lea    -0x1(%edi,%eax,1),%edi
    283c:	83 fe 23             	cmp    $0x23,%esi
    283f:	be 0a 00 00 00       	mov    $0xa,%esi
    2844:	0f 46 74 24 3c       	cmovbe 0x3c(%esp),%esi
    2849:	c6 07 00             	movb   $0x0,(%edi)
    284c:	85 db                	test   %ebx,%ebx
    284e:	74 70                	je     28c0 <__ltostr+0xb0>
    2850:	3b 7c 24 30          	cmp    0x30(%esp),%edi
    2854:	76 7d                	jbe    28d3 <__ltostr+0xc3>
    2856:	83 7c 24 40 01       	cmpl   $0x1,0x40(%esp)
    285b:	89 f9                	mov    %edi,%ecx
    285d:	89 7c 24 08          	mov    %edi,0x8(%esp)
    2861:	19 c0                	sbb    %eax,%eax
    2863:	83 e0 20             	and    $0x20,%eax
    2866:	83 c0 07             	add    $0x7,%eax
    2869:	89 c7                	mov    %eax,%edi
    286b:	eb 05                	jmp    2872 <__ltostr+0x62>
    286d:	8d 76 00             	lea    0x0(%esi),%esi
    2870:	89 c3                	mov    %eax,%ebx
    2872:	31 d2                	xor    %edx,%edx
    2874:	89 d8                	mov    %ebx,%eax
    2876:	83 e9 01             	sub    $0x1,%ecx
    2879:	f7 f6                	div    %esi
    287b:	83 c2 30             	add    $0x30,%edx
    287e:	80 fa 3a             	cmp    $0x3a,%dl
    2881:	8d 2c 3a             	lea    (%edx,%edi,1),%ebp
    2884:	0f 43 d5             	cmovae %ebp,%edx
    2887:	88 11                	mov    %dl,(%ecx)
    2889:	8b 54 24 08          	mov    0x8(%esp),%edx
    288d:	29 ca                	sub    %ecx,%edx
    288f:	39 4c 24 30          	cmp    %ecx,0x30(%esp)
    2893:	73 04                	jae    2899 <__ltostr+0x89>
    2895:	39 de                	cmp    %ebx,%esi
    2897:	76 d7                	jbe    2870 <__ltostr+0x60>
    2899:	8d 42 01             	lea    0x1(%edx),%eax
    289c:	89 d6                	mov    %edx,%esi
    289e:	83 ec 04             	sub    $0x4,%esp
    28a1:	50                   	push   %eax
    28a2:	51                   	push   %ecx
    28a3:	ff 74 24 3c          	pushl  0x3c(%esp)
    28a7:	8b 5c 24 1c          	mov    0x1c(%esp),%ebx
    28ab:	e8 50 04 00 00       	call   2d00 <memmove>
    28b0:	83 c4 2c             	add    $0x2c,%esp
    28b3:	89 f0                	mov    %esi,%eax
    28b5:	5b                   	pop    %ebx
    28b6:	5e                   	pop    %esi
    28b7:	5f                   	pop    %edi
    28b8:	5d                   	pop    %ebp
    28b9:	c3                   	ret    
    28ba:	8d b6 00 00 00 00    	lea    0x0(%esi),%esi
    28c0:	8d 4f ff             	lea    -0x1(%edi),%ecx
    28c3:	c6 47 ff 30          	movb   $0x30,-0x1(%edi)
    28c7:	be 01 00 00 00       	mov    $0x1,%esi
    28cc:	b8 02 00 00 00       	mov    $0x2,%eax
    28d1:	eb cb                	jmp    289e <__ltostr+0x8e>
    28d3:	89 f9                	mov    %edi,%ecx
    28d5:	31 f6                	xor    %esi,%esi
    28d7:	b8 01 00 00 00       	mov    $0x1,%eax
    28dc:	eb c0                	jmp    289e <__ltostr+0x8e>
    28de:	66 90                	xchg   %ax,%ax

000028e0 <__libc_free>:
    28e0:	55                   	push   %ebp
    28e1:	57                   	push   %edi
    28e2:	56                   	push   %esi
    28e3:	53                   	push   %ebx
    28e4:	e8 ba 06 00 00       	call   2fa3 <__x86.get_pc_thunk.bx>
    28e9:	81 c3 2b 1d 00 00    	add    $0x1d2b,%ebx
    28ef:	83 ec 0c             	sub    $0xc,%esp
    28f2:	8b 74 24 20          	mov    0x20(%esp),%esi
    28f6:	85 f6                	test   %esi,%esi
    28f8:	74 4b                	je     2945 <__libc_free+0x65>
    28fa:	8b 56 fc             	mov    -0x4(%esi),%edx
    28fd:	85 d2                	test   %edx,%edx
    28ff:	74 44                	je     2945 <__libc_free+0x65>
    2901:	8d 6e f8             	lea    -0x8(%esi),%ebp
    2904:	81 fa 00 08 00 00    	cmp    $0x800,%edx
    290a:	77 44                	ja     2950 <__libc_free+0x70>
    290c:	8d 42 ff             	lea    -0x1(%edx),%eax
    290f:	31 ff                	xor    %edi,%edi
    2911:	c1 e8 04             	shr    $0x4,%eax
    2914:	74 11                	je     2927 <__libc_free+0x47>
    2916:	8d b4 26 00 00 00 00 	lea    0x0(%esi,%eiz,1),%esi
    291d:	8d 76 00             	lea    0x0(%esi),%esi
    2920:	83 c7 01             	add    $0x1,%edi
    2923:	d1 e8                	shr    %eax
    2925:	75 f9                	jne    2920 <__libc_free+0x40>
    2927:	83 ec 04             	sub    $0x4,%esp
    292a:	52                   	push   %edx
    292b:	6a 00                	push   $0x0
    292d:	55                   	push   %ebp
    292e:	e8 2a f1 ff ff       	call   1a5d <memset>
    2933:	8d 83 ac 11 00 00    	lea    0x11ac(%ebx),%eax
    2939:	83 c4 10             	add    $0x10,%esp
    293c:	8b 14 b8             	mov    (%eax,%edi,4),%edx
    293f:	89 2c b8             	mov    %ebp,(%eax,%edi,4)
    2942:	89 56 f8             	mov    %edx,-0x8(%esi)
    2945:	83 c4 0c             	add    $0xc,%esp
    2948:	5b                   	pop    %ebx
    2949:	5e                   	pop    %esi
    294a:	5f                   	pop    %edi
    294b:	5d                   	pop    %ebp
    294c:	c3                   	ret    
    294d:	8d 76 00             	lea    0x0(%esi),%esi
    2950:	83 ec 08             	sub    $0x8,%esp
    2953:	52                   	push   %edx
    2954:	55                   	push   %ebp
    2955:	e8 75 04 00 00       	call   2dcf <munmap>
    295a:	83 c4 10             	add    $0x10,%esp
    295d:	83 c4 0c             	add    $0xc,%esp
    2960:	5b                   	pop    %ebx
    2961:	5e                   	pop    %esi
    2962:	5f                   	pop    %edi
    2963:	5d                   	pop    %ebp
    2964:	c3                   	ret    
    2965:	8d b4 26 00 00 00 00 	lea    0x0(%esi,%eiz,1),%esi
    296c:	8d 74 26 00          	lea    0x0(%esi,%eiz,1),%esi

00002970 <__libc_malloc>:
    2970:	55                   	push   %ebp
    2971:	57                   	push   %edi
    2972:	56                   	push   %esi
    2973:	53                   	push   %ebx
    2974:	e8 2a 06 00 00       	call   2fa3 <__x86.get_pc_thunk.bx>
    2979:	81 c3 9b 1c 00 00    	add    $0x1c9b,%ebx
    297f:	83 ec 1c             	sub    $0x1c,%esp
    2982:	8b 7c 24 30          	mov    0x30(%esp),%edi
    2986:	85 ff                	test   %edi,%edi
    2988:	0f 84 db 00 00 00    	je     2a69 <__libc_malloc+0xf9>
    298e:	8d 47 08             	lea    0x8(%edi),%eax
    2991:	83 f8 07             	cmp    $0x7,%eax
    2994:	0f 86 cf 00 00 00    	jbe    2a69 <__libc_malloc+0xf9>
    299a:	3d 00 08 00 00       	cmp    $0x800,%eax
    299f:	76 47                	jbe    29e8 <__libc_malloc+0x78>
    29a1:	81 c7 07 10 00 00    	add    $0x1007,%edi
    29a7:	81 e7 00 f0 ff ff    	and    $0xfffff000,%edi
    29ad:	0f 84 b6 00 00 00    	je     2a69 <__libc_malloc+0xf9>
    29b3:	83 ec 08             	sub    $0x8,%esp
    29b6:	6a 00                	push   $0x0
    29b8:	6a ff                	push   $0xffffffff
    29ba:	6a 22                	push   $0x22
    29bc:	6a 03                	push   $0x3
    29be:	57                   	push   %edi
    29bf:	6a 00                	push   $0x0
    29c1:	e8 da 03 00 00       	call   2da0 <mmap>
    29c6:	83 c4 20             	add    $0x20,%esp
    29c9:	89 c1                	mov    %eax,%ecx
    29cb:	83 f9 ff             	cmp    $0xffffffff,%ecx
    29ce:	0f 84 95 00 00 00    	je     2a69 <__libc_malloc+0xf9>
    29d4:	89 79 04             	mov    %edi,0x4(%ecx)
    29d7:	83 c4 1c             	add    $0x1c,%esp
    29da:	8d 41 08             	lea    0x8(%ecx),%eax
    29dd:	5b                   	pop    %ebx
    29de:	5e                   	pop    %esi
    29df:	5f                   	pop    %edi
    29e0:	5d                   	pop    %ebp
    29e1:	c3                   	ret    
    29e2:	8d b6 00 00 00 00    	lea    0x0(%esi),%esi
    29e8:	8d 77 07             	lea    0x7(%edi),%esi
    29eb:	c1 ee 04             	shr    $0x4,%esi
    29ee:	0f 84 ec 00 00 00    	je     2ae0 <__libc_malloc+0x170>
    29f4:	31 c9                	xor    %ecx,%ecx
    29f6:	8d b4 26 00 00 00 00 	lea    0x0(%esi,%eiz,1),%esi
    29fd:	8d 76 00             	lea    0x0(%esi),%esi
    2a00:	83 c1 01             	add    $0x1,%ecx
    2a03:	d1 ee                	shr    %esi
    2a05:	75 f9                	jne    2a00 <__libc_malloc+0x90>
    2a07:	bf 10 00 00 00       	mov    $0x10,%edi
    2a0c:	d3 e7                	shl    %cl,%edi
    2a0e:	8d 47 ff             	lea    -0x1(%edi),%eax
    2a11:	c1 e8 04             	shr    $0x4,%eax
    2a14:	25 ff 00 00 00       	and    $0xff,%eax
    2a19:	74 0c                	je     2a27 <__libc_malloc+0xb7>
    2a1b:	8d 74 26 00          	lea    0x0(%esi,%eiz,1),%esi
    2a1f:	90                   	nop
    2a20:	83 c6 01             	add    $0x1,%esi
    2a23:	d1 e8                	shr    %eax
    2a25:	75 f9                	jne    2a20 <__libc_malloc+0xb0>
    2a27:	8d ab ac 11 00 00    	lea    0x11ac(%ebx),%ebp
    2a2d:	8b 4c b5 00          	mov    0x0(%ebp,%esi,4),%ecx
    2a31:	85 c9                	test   %ecx,%ecx
    2a33:	74 13                	je     2a48 <__libc_malloc+0xd8>
    2a35:	8b 01                	mov    (%ecx),%eax
    2a37:	c7 01 00 00 00 00    	movl   $0x0,(%ecx)
    2a3d:	89 44 b5 00          	mov    %eax,0x0(%ebp,%esi,4)
    2a41:	eb 88                	jmp    29cb <__libc_malloc+0x5b>
    2a43:	8d 74 26 00          	lea    0x0(%esi,%eiz,1),%esi
    2a47:	90                   	nop
    2a48:	83 ec 08             	sub    $0x8,%esp
    2a4b:	6a 00                	push   $0x0
    2a4d:	6a ff                	push   $0xffffffff
    2a4f:	6a 22                	push   $0x22
    2a51:	6a 03                	push   $0x3
    2a53:	68 00 10 00 00       	push   $0x1000
    2a58:	6a 00                	push   $0x0
    2a5a:	e8 41 03 00 00       	call   2da0 <mmap>
    2a5f:	83 c4 20             	add    $0x20,%esp
    2a62:	89 c1                	mov    %eax,%ecx
    2a64:	83 f8 ff             	cmp    $0xffffffff,%eax
    2a67:	75 17                	jne    2a80 <__libc_malloc+0x110>
    2a69:	e8 12 d8 ff ff       	call   280 <__errno_location>
    2a6e:	c7 00 0c 00 00 00    	movl   $0xc,(%eax)
    2a74:	83 c4 1c             	add    $0x1c,%esp
    2a77:	31 c0                	xor    %eax,%eax
    2a79:	5b                   	pop    %ebx
    2a7a:	5e                   	pop    %esi
    2a7b:	5f                   	pop    %edi
    2a7c:	5d                   	pop    %ebp
    2a7d:	c3                   	ret    
    2a7e:	66 90                	xchg   %ax,%ax
    2a80:	31 d2                	xor    %edx,%edx
    2a82:	89 44 b5 00          	mov    %eax,0x0(%ebp,%esi,4)
    2a86:	b8 00 10 00 00       	mov    $0x1000,%eax
    2a8b:	f7 f7                	div    %edi
    2a8d:	83 e8 01             	sub    $0x1,%eax
    2a90:	85 c0                	test   %eax,%eax
    2a92:	89 44 24 04          	mov    %eax,0x4(%esp)
    2a96:	89 c8                	mov    %ecx,%eax
    2a98:	7e 35                	jle    2acf <__libc_malloc+0x15f>
    2a9a:	89 74 24 08          	mov    %esi,0x8(%esp)
    2a9e:	31 d2                	xor    %edx,%edx
    2aa0:	89 4c 24 0c          	mov    %ecx,0xc(%esp)
    2aa4:	8b 4c 24 04          	mov    0x4(%esp),%ecx
    2aa8:	8d b4 26 00 00 00 00 	lea    0x0(%esi,%eiz,1),%esi
    2aaf:	90                   	nop
    2ab0:	8d 34 07             	lea    (%edi,%eax,1),%esi
    2ab3:	83 c2 01             	add    $0x1,%edx
    2ab6:	89 30                	mov    %esi,(%eax)
    2ab8:	89 f0                	mov    %esi,%eax
    2aba:	39 d1                	cmp    %edx,%ecx
    2abc:	75 f2                	jne    2ab0 <__libc_malloc+0x140>
    2abe:	8b 44 24 04          	mov    0x4(%esp),%eax
    2ac2:	8b 4c 24 0c          	mov    0xc(%esp),%ecx
    2ac6:	8b 74 24 08          	mov    0x8(%esp),%esi
    2aca:	0f af c7             	imul   %edi,%eax
    2acd:	01 c8                	add    %ecx,%eax
    2acf:	c7 00 00 00 00 00    	movl   $0x0,(%eax)
    2ad5:	e9 5b ff ff ff       	jmp    2a35 <__libc_malloc+0xc5>
    2ada:	8d b6 00 00 00 00    	lea    0x0(%esi),%esi
    2ae0:	bf 10 00 00 00       	mov    $0x10,%edi
    2ae5:	e9 3d ff ff ff       	jmp    2a27 <__libc_malloc+0xb7>
    2aea:	8d b6 00 00 00 00    	lea    0x0(%esi),%esi

00002af0 <__libc_calloc>:
    2af0:	53                   	push   %ebx
    2af1:	e8 ad 04 00 00       	call   2fa3 <__x86.get_pc_thunk.bx>
    2af6:	81 c3 1e 1b 00 00    	add    $0x1b1e,%ebx
    2afc:	83 ec 08             	sub    $0x8,%esp
    2aff:	8b 44 24 14          	mov    0x14(%esp),%eax
    2b03:	f7 64 24 10          	mull   0x10(%esp)
    2b07:	70 0d                	jo     2b16 <__libc_calloc+0x26>
    2b09:	89 44 24 10          	mov    %eax,0x10(%esp)
    2b0d:	83 c4 08             	add    $0x8,%esp
    2b10:	5b                   	pop    %ebx
    2b11:	e9 5a fe ff ff       	jmp    2970 <__libc_malloc>
    2b16:	e8 65 d7 ff ff       	call   280 <__errno_location>
    2b1b:	c7 00 0c 00 00 00    	movl   $0xc,(%eax)
    2b21:	83 c4 08             	add    $0x8,%esp
    2b24:	31 c0                	xor    %eax,%eax
    2b26:	5b                   	pop    %ebx
    2b27:	c3                   	ret    
    2b28:	8d b4 26 00 00 00 00 	lea    0x0(%esi,%eiz,1),%esi
    2b2f:	90                   	nop

00002b30 <__libc_realloc>:
    2b30:	57                   	push   %edi
    2b31:	56                   	push   %esi
    2b32:	53                   	push   %ebx
    2b33:	8b 74 24 10          	mov    0x10(%esp),%esi
    2b37:	e8 67 04 00 00       	call   2fa3 <__x86.get_pc_thunk.bx>
    2b3c:	81 c3 d8 1a 00 00    	add    $0x1ad8,%ebx
    2b42:	8b 54 24 14          	mov    0x14(%esp),%edx
    2b46:	85 f6                	test   %esi,%esi
    2b48:	0f 84 92 00 00 00    	je     2be0 <__libc_realloc+0xb0>
    2b4e:	85 d2                	test   %edx,%edx
    2b50:	0f 84 9a 00 00 00    	je     2bf0 <__libc_realloc+0xc0>
    2b56:	8d 42 08             	lea    0x8(%edx),%eax
    2b59:	83 f8 07             	cmp    $0x7,%eax
    2b5c:	0f 86 ee 00 00 00    	jbe    2c50 <__libc_realloc+0x120>
    2b62:	3d 00 08 00 00       	cmp    $0x800,%eax
    2b67:	0f 87 9b 00 00 00    	ja     2c08 <__libc_realloc+0xd8>
    2b6d:	8d 42 07             	lea    0x7(%edx),%eax
    2b70:	c1 e8 04             	shr    $0x4,%eax
    2b73:	0f 84 07 01 00 00    	je     2c80 <__libc_realloc+0x150>
    2b79:	31 c9                	xor    %ecx,%ecx
    2b7b:	8d 74 26 00          	lea    0x0(%esi,%eiz,1),%esi
    2b7f:	90                   	nop
    2b80:	83 c1 01             	add    $0x1,%ecx
    2b83:	d1 e8                	shr    %eax
    2b85:	75 f9                	jne    2b80 <__libc_realloc+0x50>
    2b87:	b8 10 00 00 00       	mov    $0x10,%eax
    2b8c:	d3 e0                	shl    %cl,%eax
    2b8e:	8b 4e fc             	mov    -0x4(%esi),%ecx
    2b91:	89 f7                	mov    %esi,%edi
    2b93:	39 c1                	cmp    %eax,%ecx
    2b95:	74 3c                	je     2bd3 <__libc_realloc+0xa3>
    2b97:	81 f9 00 08 00 00    	cmp    $0x800,%ecx
    2b9d:	0f 87 7d 00 00 00    	ja     2c20 <__libc_realloc+0xf0>
    2ba3:	83 ec 0c             	sub    $0xc,%esp
    2ba6:	52                   	push   %edx
    2ba7:	e8 c4 fd ff ff       	call   2970 <__libc_malloc>
    2bac:	83 c4 10             	add    $0x10,%esp
    2baf:	89 c7                	mov    %eax,%edi
    2bb1:	85 c0                	test   %eax,%eax
    2bb3:	74 47                	je     2bfc <__libc_realloc+0xcc>
    2bb5:	8b 40 fc             	mov    -0x4(%eax),%eax
    2bb8:	39 46 fc             	cmp    %eax,-0x4(%esi)
    2bbb:	0f 46 46 fc          	cmovbe -0x4(%esi),%eax
    2bbf:	85 c0                	test   %eax,%eax
    2bc1:	0f 85 a1 00 00 00    	jne    2c68 <__libc_realloc+0x138>
    2bc7:	83 ec 0c             	sub    $0xc,%esp
    2bca:	56                   	push   %esi
    2bcb:	e8 10 fd ff ff       	call   28e0 <__libc_free>
    2bd0:	83 c4 10             	add    $0x10,%esp
    2bd3:	89 f8                	mov    %edi,%eax
    2bd5:	5b                   	pop    %ebx
    2bd6:	5e                   	pop    %esi
    2bd7:	5f                   	pop    %edi
    2bd8:	c3                   	ret    
    2bd9:	8d b4 26 00 00 00 00 	lea    0x0(%esi,%eiz,1),%esi
    2be0:	85 d2                	test   %edx,%edx
    2be2:	74 18                	je     2bfc <__libc_realloc+0xcc>
    2be4:	89 54 24 10          	mov    %edx,0x10(%esp)
    2be8:	5b                   	pop    %ebx
    2be9:	5e                   	pop    %esi
    2bea:	5f                   	pop    %edi
    2beb:	e9 80 fd ff ff       	jmp    2970 <__libc_malloc>
    2bf0:	83 ec 0c             	sub    $0xc,%esp
    2bf3:	56                   	push   %esi
    2bf4:	e8 e7 fc ff ff       	call   28e0 <__libc_free>
    2bf9:	83 c4 10             	add    $0x10,%esp
    2bfc:	31 ff                	xor    %edi,%edi
    2bfe:	5b                   	pop    %ebx
    2bff:	5e                   	pop    %esi
    2c00:	89 f8                	mov    %edi,%eax
    2c02:	5f                   	pop    %edi
    2c03:	c3                   	ret    
    2c04:	8d 74 26 00          	lea    0x0(%esi,%eiz,1),%esi
    2c08:	8d 82 07 10 00 00    	lea    0x1007(%edx),%eax
    2c0e:	25 00 f0 ff ff       	and    $0xfffff000,%eax
    2c13:	e9 76 ff ff ff       	jmp    2b8e <__libc_realloc+0x5e>
    2c18:	8d b4 26 00 00 00 00 	lea    0x0(%esi,%eiz,1),%esi
    2c1f:	90                   	nop
    2c20:	8d b0 ff 0f 00 00    	lea    0xfff(%eax),%esi
    2c26:	83 ef 08             	sub    $0x8,%edi
    2c29:	6a 01                	push   $0x1
    2c2b:	81 e6 00 f0 ff ff    	and    $0xfffff000,%esi
    2c31:	56                   	push   %esi
    2c32:	51                   	push   %ecx
    2c33:	57                   	push   %edi
    2c34:	e8 8f 01 00 00       	call   2dc8 <mremap>
    2c39:	83 c4 10             	add    $0x10,%esp
    2c3c:	83 f8 ff             	cmp    $0xffffffff,%eax
    2c3f:	74 0f                	je     2c50 <__libc_realloc+0x120>
    2c41:	8d 78 08             	lea    0x8(%eax),%edi
    2c44:	89 70 04             	mov    %esi,0x4(%eax)
    2c47:	5b                   	pop    %ebx
    2c48:	89 f8                	mov    %edi,%eax
    2c4a:	5e                   	pop    %esi
    2c4b:	5f                   	pop    %edi
    2c4c:	c3                   	ret    
    2c4d:	8d 76 00             	lea    0x0(%esi),%esi
    2c50:	e8 2b d6 ff ff       	call   280 <__errno_location>
    2c55:	31 ff                	xor    %edi,%edi
    2c57:	c7 00 0c 00 00 00    	movl   $0xc,(%eax)
    2c5d:	89 f8                	mov    %edi,%eax
    2c5f:	5b                   	pop    %ebx
    2c60:	5e                   	pop    %esi
    2c61:	5f                   	pop    %edi
    2c62:	c3                   	ret    
    2c63:	8d 74 26 00          	lea    0x0(%esi,%eiz,1),%esi
    2c67:	90                   	nop
    2c68:	83 ec 04             	sub    $0x4,%esp
    2c6b:	83 e8 08             	sub    $0x8,%eax
    2c6e:	50                   	push   %eax
    2c6f:	56                   	push   %esi
    2c70:	57                   	push   %edi
    2c71:	e8 d1 ed ff ff       	call   1a47 <memcpy>
    2c76:	83 c4 10             	add    $0x10,%esp
    2c79:	e9 49 ff ff ff       	jmp    2bc7 <__libc_realloc+0x97>
    2c7e:	66 90                	xchg   %ax,%ax
    2c80:	b8 10 00 00 00       	mov    $0x10,%eax
    2c85:	e9 04 ff ff ff       	jmp    2b8e <__libc_realloc+0x5e>
    2c8a:	66 90                	xchg   %ax,%ax
    2c8c:	66 90                	xchg   %ax,%ax
    2c8e:	66 90                	xchg   %ax,%ax

00002c90 <isalnum>:
    2c90:	8b 4c 24 04          	mov    0x4(%esp),%ecx
    2c94:	b8 01 00 00 00       	mov    $0x1,%eax
    2c99:	89 ca                	mov    %ecx,%edx
    2c9b:	83 ca 20             	or     $0x20,%edx
    2c9e:	83 ea 61             	sub    $0x61,%edx
    2ca1:	83 fa 19             	cmp    $0x19,%edx
    2ca4:	76 0b                	jbe    2cb1 <isalnum+0x21>
    2ca6:	83 e9 30             	sub    $0x30,%ecx
    2ca9:	31 c0                	xor    %eax,%eax
    2cab:	83 f9 09             	cmp    $0x9,%ecx
    2cae:	0f 96 c0             	setbe  %al
    2cb1:	c3                   	ret    
    2cb2:	66 90                	xchg   %ax,%ax
    2cb4:	66 90                	xchg   %ax,%ax
    2cb6:	66 90                	xchg   %ax,%ax
    2cb8:	66 90                	xchg   %ax,%ax
    2cba:	66 90                	xchg   %ax,%ax
    2cbc:	66 90                	xchg   %ax,%ax
    2cbe:	66 90                	xchg   %ax,%ax

00002cc0 <__isspace_ascii>:
    2cc0:	8b 54 24 04          	mov    0x4(%esp),%edx
    2cc4:	8d 42 f7             	lea    -0x9(%edx),%eax
    2cc7:	83 f8 04             	cmp    $0x4,%eax
    2cca:	0f 96 c0             	setbe  %al
    2ccd:	83 fa 20             	cmp    $0x20,%edx
    2cd0:	0f 94 c2             	sete   %dl
    2cd3:	09 d0                	or     %edx,%eax
    2cd5:	0f b6 c0             	movzbl %al,%eax
    2cd8:	c3                   	ret    
    2cd9:	66 90                	xchg   %ax,%ax
    2cdb:	66 90                	xchg   %ax,%ax
    2cdd:	66 90                	xchg   %ax,%ax
    2cdf:	90                   	nop

00002ce0 <__isxdigit_ascii>:
    2ce0:	8b 54 24 04          	mov    0x4(%esp),%edx
    2ce4:	b8 01 00 00 00       	mov    $0x1,%eax
    2ce9:	8d 4a d0             	lea    -0x30(%edx),%ecx
    2cec:	83 f9 09             	cmp    $0x9,%ecx
    2cef:	76 0e                	jbe    2cff <__isxdigit_ascii+0x1f>
    2cf1:	83 ca 20             	or     $0x20,%edx
    2cf4:	31 c0                	xor    %eax,%eax
    2cf6:	83 ea 61             	sub    $0x61,%edx
    2cf9:	83 fa 05             	cmp    $0x5,%edx
    2cfc:	0f 96 c0             	setbe  %al
    2cff:	c3                   	ret    

00002d00 <memmove>:
    2d00:	57                   	push   %edi
    2d01:	56                   	push   %esi
    2d02:	8b 44 24 0c          	mov    0xc(%esp),%eax
    2d06:	8b 74 24 10          	mov    0x10(%esp),%esi
    2d0a:	8b 4c 24 14          	mov    0x14(%esp),%ecx
    2d0e:	39 f0                	cmp    %esi,%eax
    2d10:	74 13                	je     2d25 <memmove+0x25>
    2d12:	8d 51 ff             	lea    -0x1(%ecx),%edx
    2d15:	73 19                	jae    2d30 <memmove+0x30>
    2d17:	85 c9                	test   %ecx,%ecx
    2d19:	74 0a                	je     2d25 <memmove+0x25>
    2d1b:	8d 14 08             	lea    (%eax,%ecx,1),%edx
    2d1e:	89 c7                	mov    %eax,%edi
    2d20:	a4                   	movsb  %ds:(%esi),%es:(%edi)
    2d21:	39 fa                	cmp    %edi,%edx
    2d23:	75 fb                	jne    2d20 <memmove+0x20>
    2d25:	5e                   	pop    %esi
    2d26:	5f                   	pop    %edi
    2d27:	c3                   	ret    
    2d28:	8d b4 26 00 00 00 00 	lea    0x0(%esi,%eiz,1),%esi
    2d2f:	90                   	nop
    2d30:	85 c9                	test   %ecx,%ecx
    2d32:	74 f1                	je     2d25 <memmove+0x25>
    2d34:	8d 7e ff             	lea    -0x1(%esi),%edi
    2d37:	8d 70 ff             	lea    -0x1(%eax),%esi
    2d3a:	8d b6 00 00 00 00    	lea    0x0(%esi),%esi
    2d40:	0f b6 4c 17 01       	movzbl 0x1(%edi,%edx,1),%ecx
    2d45:	88 4c 16 01          	mov    %cl,0x1(%esi,%edx,1)
    2d49:	83 ea 01             	sub    $0x1,%edx
    2d4c:	83 fa ff             	cmp    $0xffffffff,%edx
    2d4f:	75 ef                	jne    2d40 <memmove+0x40>
    2d51:	5e                   	pop    %esi
    2d52:	5f                   	pop    %edi
    2d53:	c3                   	ret    
    2d54:	66 90                	xchg   %ax,%ax
    2d56:	66 90                	xchg   %ax,%ax
    2d58:	66 90                	xchg   %ax,%ax
    2d5a:	66 90                	xchg   %ax,%ax
    2d5c:	66 90                	xchg   %ax,%ax
    2d5e:	66 90                	xchg   %ax,%ax

00002d60 <__stack_chk_fail>:
    2d60:	53                   	push   %ebx
    2d61:	e8 3d 02 00 00       	call   2fa3 <__x86.get_pc_thunk.bx>
    2d66:	81 c3 ae 18 00 00    	add    $0x18ae,%ebx
    2d6c:	83 ec 08             	sub    $0x8,%esp
    2d6f:	8d 83 04 ff ff ff    	lea    -0xfc(%ebx),%eax
    2d75:	e8 0a 00 00 00       	call   2d84 <__write2>
    2d7a:	83 ec 0c             	sub    $0xc,%esp
    2d7d:	6a 7f                	push   $0x7f
    2d7f:	e8 ba d4 ff ff       	call   23e <_exit>

00002d84 <__write2>:
    2d84:	f8                   	clc    
    2d85:	b2                   	.byte 0xb2

00002d86 <__write1>:
    2d86:	f9                   	stc    
    2d87:	19 c9                	sbb    %ecx,%ecx
    2d89:	41                   	inc    %ecx
    2d8a:	41                   	inc    %ecx
    2d8b:	31 d2                	xor    %edx,%edx
    2d8d:	4a                   	dec    %edx
    2d8e:	42                   	inc    %edx
    2d8f:	38 2c 02             	cmp    %ch,(%edx,%eax,1)
    2d92:	75 fa                	jne    2d8e <__write1+0x8>
    2d94:	52                   	push   %edx
    2d95:	50                   	push   %eax
    2d96:	51                   	push   %ecx
    2d97:	e8 92 de ff ff       	call   c2e <__libc_write>
    2d9c:	83 c4 0c             	add    $0xc,%esp
    2d9f:	c3                   	ret    

00002da0 <mmap>:
    2da0:	8b 44 24 18          	mov    0x18(%esp),%eax
    2da4:	a9 ff 0f 00 00       	test   $0xfff,%eax
    2da9:	75 0c                	jne    2db7 <mmap+0x17>
    2dab:	c1 e8 0c             	shr    $0xc,%eax
    2dae:	89 44 24 18          	mov    %eax,0x18(%esp)
    2db2:	e9 0a 00 00 00       	jmp    2dc1 <__mmap2>
    2db7:	b8 ea ff ff ff       	mov    $0xffffffea,%eax
    2dbc:	e9 a9 d4 ff ff       	jmp    26a <__error_unified_syscall>

00002dc1 <__mmap2>:
    2dc1:	b0 c0                	mov    $0xc0,%al
    2dc3:	e9 78 d4 ff ff       	jmp    240 <__unified_syscall>

00002dc8 <mremap>:
    2dc8:	b0 a3                	mov    $0xa3,%al
    2dca:	e9 71 d4 ff ff       	jmp    240 <__unified_syscall>

00002dcf <munmap>:
    2dcf:	b0 5b                	mov    $0x5b,%al
    2dd1:	e9 6a d4 ff ff       	jmp    240 <__unified_syscall>
    2dd6:	66 90                	xchg   %ax,%ax
    2dd8:	66 90                	xchg   %ax,%ax
    2dda:	66 90                	xchg   %ax,%ax
    2ddc:	66 90                	xchg   %ax,%ax
    2dde:	66 90                	xchg   %ax,%ax

00002de0 <__udivmoddi4>:
    2de0:	55                   	push   %ebp
    2de1:	57                   	push   %edi
    2de2:	56                   	push   %esi
    2de3:	53                   	push   %ebx
    2de4:	83 ec 2c             	sub    $0x2c,%esp
    2de7:	8b 44 24 40          	mov    0x40(%esp),%eax
    2deb:	8b 5c 24 44          	mov    0x44(%esp),%ebx
    2def:	8b 6c 24 4c          	mov    0x4c(%esp),%ebp
    2df3:	8b 74 24 48          	mov    0x48(%esp),%esi
    2df7:	89 44 24 0c          	mov    %eax,0xc(%esp)
    2dfb:	89 da                	mov    %ebx,%edx
    2dfd:	85 ed                	test   %ebp,%ebp
    2dff:	75 57                	jne    2e58 <__udivmoddi4+0x78>
    2e01:	39 de                	cmp    %ebx,%esi
    2e03:	76 2b                	jbe    2e30 <__udivmoddi4+0x50>
    2e05:	f7 f6                	div    %esi
    2e07:	31 ff                	xor    %edi,%edi
    2e09:	89 c1                	mov    %eax,%ecx
    2e0b:	8b 6c 24 50          	mov    0x50(%esp),%ebp
    2e0f:	89 c8                	mov    %ecx,%eax
    2e11:	85 ed                	test   %ebp,%ebp
    2e13:	74 0d                	je     2e22 <__udivmoddi4+0x42>
    2e15:	8b 74 24 50          	mov    0x50(%esp),%esi
    2e19:	89 16                	mov    %edx,(%esi)
    2e1b:	c7 46 04 00 00 00 00 	movl   $0x0,0x4(%esi)
    2e22:	89 fa                	mov    %edi,%edx
    2e24:	83 c4 2c             	add    $0x2c,%esp
    2e27:	5b                   	pop    %ebx
    2e28:	5e                   	pop    %esi
    2e29:	5f                   	pop    %edi
    2e2a:	5d                   	pop    %ebp
    2e2b:	c3                   	ret    
    2e2c:	8d 74 26 00          	lea    0x0(%esi,%eiz,1),%esi
    2e30:	89 f7                	mov    %esi,%edi
    2e32:	85 f6                	test   %esi,%esi
    2e34:	75 0b                	jne    2e41 <__udivmoddi4+0x61>
    2e36:	b8 01 00 00 00       	mov    $0x1,%eax
    2e3b:	31 d2                	xor    %edx,%edx
    2e3d:	f7 f6                	div    %esi
    2e3f:	89 c7                	mov    %eax,%edi
    2e41:	89 d8                	mov    %ebx,%eax
    2e43:	31 d2                	xor    %edx,%edx
    2e45:	f7 f7                	div    %edi
    2e47:	89 c3                	mov    %eax,%ebx
    2e49:	8b 44 24 0c          	mov    0xc(%esp),%eax
    2e4d:	f7 f7                	div    %edi
    2e4f:	89 df                	mov    %ebx,%edi
    2e51:	89 c1                	mov    %eax,%ecx
    2e53:	eb b6                	jmp    2e0b <__udivmoddi4+0x2b>
    2e55:	8d 76 00             	lea    0x0(%esi),%esi
    2e58:	39 dd                	cmp    %ebx,%ebp
    2e5a:	76 2c                	jbe    2e88 <__udivmoddi4+0xa8>
    2e5c:	8b 74 24 50          	mov    0x50(%esp),%esi
    2e60:	85 f6                	test   %esi,%esi
    2e62:	0f 84 08 01 00 00    	je     2f70 <__udivmoddi4+0x190>
    2e68:	8b 44 24 50          	mov    0x50(%esp),%eax
    2e6c:	8b 7c 24 0c          	mov    0xc(%esp),%edi
    2e70:	89 58 04             	mov    %ebx,0x4(%eax)
    2e73:	89 38                	mov    %edi,(%eax)
    2e75:	31 ff                	xor    %edi,%edi
    2e77:	31 c0                	xor    %eax,%eax
    2e79:	89 fa                	mov    %edi,%edx
    2e7b:	83 c4 2c             	add    $0x2c,%esp
    2e7e:	5b                   	pop    %ebx
    2e7f:	5e                   	pop    %esi
    2e80:	5f                   	pop    %edi
    2e81:	5d                   	pop    %ebp
    2e82:	c3                   	ret    
    2e83:	90                   	nop
    2e84:	8d 74 26 00          	lea    0x0(%esi,%eiz,1),%esi
    2e88:	0f bd fd             	bsr    %ebp,%edi
    2e8b:	83 f7 1f             	xor    $0x1f,%edi
    2e8e:	75 30                	jne    2ec0 <__udivmoddi4+0xe0>
    2e90:	39 dd                	cmp    %ebx,%ebp
    2e92:	0f 82 e8 00 00 00    	jb     2f80 <__udivmoddi4+0x1a0>
    2e98:	89 c1                	mov    %eax,%ecx
    2e9a:	31 c0                	xor    %eax,%eax
    2e9c:	3b 74 24 0c          	cmp    0xc(%esp),%esi
    2ea0:	0f 86 da 00 00 00    	jbe    2f80 <__udivmoddi4+0x1a0>
    2ea6:	8b 5c 24 50          	mov    0x50(%esp),%ebx
    2eaa:	85 db                	test   %ebx,%ebx
    2eac:	0f 84 70 ff ff ff    	je     2e22 <__udivmoddi4+0x42>
    2eb2:	8b 5c 24 50          	mov    0x50(%esp),%ebx
    2eb6:	89 0b                	mov    %ecx,(%ebx)
    2eb8:	89 53 04             	mov    %edx,0x4(%ebx)
    2ebb:	e9 62 ff ff ff       	jmp    2e22 <__udivmoddi4+0x42>
    2ec0:	b8 20 00 00 00       	mov    $0x20,%eax
    2ec5:	89 f9                	mov    %edi,%ecx
    2ec7:	89 c2                	mov    %eax,%edx
    2ec9:	d3 e5                	shl    %cl,%ebp
    2ecb:	89 f0                	mov    %esi,%eax
    2ecd:	29 fa                	sub    %edi,%edx
    2ecf:	89 d1                	mov    %edx,%ecx
    2ed1:	89 54 24 1c          	mov    %edx,0x1c(%esp)
    2ed5:	d3 e8                	shr    %cl,%eax
    2ed7:	89 f9                	mov    %edi,%ecx
    2ed9:	d3 e6                	shl    %cl,%esi
    2edb:	09 c5                	or     %eax,%ebp
    2edd:	89 d1                	mov    %edx,%ecx
    2edf:	89 d8                	mov    %ebx,%eax
    2ee1:	d3 e8                	shr    %cl,%eax
    2ee3:	89 74 24 10          	mov    %esi,0x10(%esp)
    2ee7:	89 f9                	mov    %edi,%ecx
    2ee9:	89 c6                	mov    %eax,%esi
    2eeb:	8b 44 24 0c          	mov    0xc(%esp),%eax
    2eef:	d3 e3                	shl    %cl,%ebx
    2ef1:	89 d1                	mov    %edx,%ecx
    2ef3:	89 f2                	mov    %esi,%edx
    2ef5:	d3 e8                	shr    %cl,%eax
    2ef7:	89 f9                	mov    %edi,%ecx
    2ef9:	09 c3                	or     %eax,%ebx
    2efb:	8b 44 24 0c          	mov    0xc(%esp),%eax
    2eff:	d3 e0                	shl    %cl,%eax
    2f01:	89 44 24 18          	mov    %eax,0x18(%esp)
    2f05:	89 d8                	mov    %ebx,%eax
    2f07:	f7 f5                	div    %ebp
    2f09:	89 d6                	mov    %edx,%esi
    2f0b:	89 c1                	mov    %eax,%ecx
    2f0d:	89 c3                	mov    %eax,%ebx
    2f0f:	f7 64 24 10          	mull   0x10(%esp)
    2f13:	89 44 24 0c          	mov    %eax,0xc(%esp)
    2f17:	89 54 24 14          	mov    %edx,0x14(%esp)
    2f1b:	39 d6                	cmp    %edx,%esi
    2f1d:	72 08                	jb     2f27 <__udivmoddi4+0x147>
    2f1f:	75 17                	jne    2f38 <__udivmoddi4+0x158>
    2f21:	39 44 24 18          	cmp    %eax,0x18(%esp)
    2f25:	73 11                	jae    2f38 <__udivmoddi4+0x158>
    2f27:	2b 44 24 10          	sub    0x10(%esp),%eax
    2f2b:	19 ea                	sbb    %ebp,%edx
    2f2d:	89 54 24 14          	mov    %edx,0x14(%esp)
    2f31:	8d 59 ff             	lea    -0x1(%ecx),%ebx
    2f34:	89 44 24 0c          	mov    %eax,0xc(%esp)
    2f38:	8b 54 24 50          	mov    0x50(%esp),%edx
    2f3c:	89 d8                	mov    %ebx,%eax
    2f3e:	85 d2                	test   %edx,%edx
    2f40:	74 56                	je     2f98 <__udivmoddi4+0x1b8>
    2f42:	0f b6 4c 24 1c       	movzbl 0x1c(%esp),%ecx
    2f47:	8b 54 24 18          	mov    0x18(%esp),%edx
    2f4b:	2b 54 24 0c          	sub    0xc(%esp),%edx
    2f4f:	1b 74 24 14          	sbb    0x14(%esp),%esi
    2f53:	89 f3                	mov    %esi,%ebx
    2f55:	d3 e3                	shl    %cl,%ebx
    2f57:	89 f9                	mov    %edi,%ecx
    2f59:	8b 7c 24 50          	mov    0x50(%esp),%edi
    2f5d:	d3 ea                	shr    %cl,%edx
    2f5f:	d3 ee                	shr    %cl,%esi
    2f61:	09 da                	or     %ebx,%edx
    2f63:	89 77 04             	mov    %esi,0x4(%edi)
    2f66:	89 17                	mov    %edx,(%edi)
    2f68:	31 ff                	xor    %edi,%edi
    2f6a:	e9 b3 fe ff ff       	jmp    2e22 <__udivmoddi4+0x42>
    2f6f:	90                   	nop
    2f70:	31 ff                	xor    %edi,%edi
    2f72:	31 c0                	xor    %eax,%eax
    2f74:	e9 a9 fe ff ff       	jmp    2e22 <__udivmoddi4+0x42>
    2f79:	8d b4 26 00 00 00 00 	lea    0x0(%esi,%eiz,1),%esi
    2f80:	89 da                	mov    %ebx,%edx
    2f82:	8b 4c 24 0c          	mov    0xc(%esp),%ecx
    2f86:	b8 01 00 00 00       	mov    $0x1,%eax
    2f8b:	29 f1                	sub    %esi,%ecx
    2f8d:	19 ea                	sbb    %ebp,%edx
    2f8f:	e9 12 ff ff ff       	jmp    2ea6 <__udivmoddi4+0xc6>
    2f94:	8d 74 26 00          	lea    0x0(%esi,%eiz,1),%esi
    2f98:	31 ff                	xor    %edi,%edi
    2f9a:	e9 83 fe ff ff       	jmp    2e22 <__udivmoddi4+0x42>

Disassembly of section .text.__x86.get_pc_thunk.ax:

00002f9f <__x86.get_pc_thunk.ax>:
    2f9f:	8b 04 24             	mov    (%esp),%eax
    2fa2:	c3                   	ret    

Disassembly of section .text.__x86.get_pc_thunk.bx:

00002fa3 <__x86.get_pc_thunk.bx>:
    2fa3:	8b 1c 24             	mov    (%esp),%ebx
    2fa6:	c3                   	ret    

Disassembly of section .text.unlikely:

00002fa7 <.text.unlikely>:
    2fa7:	a1 00 00 00 00       	mov    0x0,%eax
    2fac:	0f 0b                	ud2    

Disassembly of section .text.__x86.get_pc_thunk.di:

00002fae <__x86.get_pc_thunk.di>:
    2fae:	8b 3c 24             	mov    (%esp),%edi
    2fb1:	c3                   	ret    

Disassembly of section .text.__x86.get_pc_thunk.dx:

00002fb2 <__x86.get_pc_thunk.dx>:
    2fb2:	8b 14 24             	mov    (%esp),%edx
    2fb5:	c3                   	ret    

Disassembly of section .text.__x86.get_pc_thunk.cx:

00002fb6 <__x86.get_pc_thunk.cx>:
    2fb6:	8b 0c 24             	mov    (%esp),%ecx
    2fb9:	c3                   	ret    
